
fw_payload.elf:     file format elf64-littleriscv


Disassembly of section .text:

0000000080000000 <_fw_start>:
    80000000:	00050433          	add	s0,a0,zero
    80000004:	000584b3          	add	s1,a1,zero
    80000008:	00060933          	add	s2,a2,zero
    8000000c:	54c000ef          	jal	ra,80000558 <fw_boot_hart>
    80000010:	00050833          	add	a6,a0,zero
    80000014:	00040533          	add	a0,s0,zero
    80000018:	000485b3          	add	a1,s1,zero
    8000001c:	00090633          	add	a2,s2,zero
    80000020:	58fd                	li	a7,-1
    80000022:	01180463          	beq	a6,a7,8000002a <_try_lottery>
    80000026:	0b051d63          	bne	a0,a6,800000e0 <_wait_relocate_copy_done>

000000008000002a <_try_lottery>:
    8000002a:	00019817          	auipc	a6,0x19
    8000002e:	fde80813          	addi	a6,a6,-34 # 80019008 <_relocate_lottery>
    80000032:	4885                	li	a7,1
    80000034:	0118282f          	amoadd.w	a6,a7,(a6)
    80000038:	0a081463          	bnez	a6,800000e0 <_wait_relocate_copy_done>
    8000003c:	00019297          	auipc	t0,0x19
    80000040:	fdc28293          	addi	t0,t0,-36 # 80019018 <_load_start>
    80000044:	00000317          	auipc	t1,0x0
    80000048:	fbc30313          	addi	t1,t1,-68 # 80000000 <_fw_start>
    8000004c:	0062b023          	sd	t1,0(t0)
    80000050:	00019297          	auipc	t0,0x19
    80000054:	fd028293          	addi	t0,t0,-48 # 80019020 <_link_start>
    80000058:	0002b283          	ld	t0,0(t0)
    8000005c:	405303b3          	sub	t2,t1,t0
    80000060:	00019e17          	auipc	t3,0x19
    80000064:	fa0e0e13          	addi	t3,t3,-96 # 80019000 <_runtime_offset>
    80000068:	007e3023          	sd	t2,0(t3)
    8000006c:	0001a297          	auipc	t0,0x1a
    80000070:	79c28293          	addi	t0,t0,1948 # 8001a808 <__rel_dyn_start>
    80000074:	0001c317          	auipc	t1,0x1c
    80000078:	21c30313          	addi	t1,t1,540 # 8001c290 <__rel_dyn_end>
    8000007c:	06628363          	beq	t0,t1,800000e2 <_relocate_done>
    80000080:	a8a1                	j	800000d8 <_try_lottery+0xae>
    80000082:	ff02bf03          	ld	t5,-16(t0)
    80000086:	4e0d                	li	t3,3
    80000088:	01cf1b63          	bne	t5,t3,8000009e <_try_lottery+0x74>
    8000008c:	fe82be03          	ld	t3,-24(t0)
    80000090:	ff82bf03          	ld	t5,-8(t0)
    80000094:	9f1e                	add	t5,t5,t2
    80000096:	9e1e                	add	t3,t3,t2
    80000098:	01ee3023          	sd	t5,0(t3)
    8000009c:	a835                	j	800000d8 <_try_lottery+0xae>
    8000009e:	0001ae97          	auipc	t4,0x1a
    800000a2:	362e8e93          	addi	t4,t4,866 # 8001a400 <__dyn_sym_start>
    800000a6:	ff02bf03          	ld	t5,-16(t0)
    800000aa:	020f5f93          	srli	t6,t5,0x20
    800000ae:	0fff7f13          	andi	t5,t5,255
    800000b2:	4e09                	li	t3,2
    800000b4:	03cf1263          	bne	t5,t3,800000d8 <_try_lottery+0xae>
    800000b8:	fe82be03          	ld	t3,-24(t0)
    800000bc:	4f61                	li	t5,24
    800000be:	03ef8fb3          	mul	t6,t6,t5
    800000c2:	01fe8ab3          	add	s5,t4,t6
    800000c6:	ff82bf83          	ld	t6,-8(t0)
    800000ca:	008abf03          	ld	t5,8(s5)
    800000ce:	9f7e                	add	t5,t5,t6
    800000d0:	9f1e                	add	t5,t5,t2
    800000d2:	9e1e                	add	t3,t3,t2
    800000d4:	01ee3023          	sd	t5,0(t3)
    800000d8:	02e1                	addi	t0,t0,24
    800000da:	fa5354e3          	bge	t1,t0,80000082 <_try_lottery+0x58>
    800000de:	a011                	j	800000e2 <_relocate_done>

00000000800000e0 <_wait_relocate_copy_done>:
    800000e0:	a4b9                	j	8000032e <_wait_for_boot_hart>

00000000800000e2 <_relocate_done>:
    800000e2:	00019297          	auipc	t0,0x19
    800000e6:	f2e28293          	addi	t0,t0,-210 # 80019010 <_boot_status>
    800000ea:	4305                	li	t1,1
    800000ec:	0062b023          	sd	t1,0(t0)
    800000f0:	0330000f          	fence	rw,rw
    800000f4:	4081                	li	ra,0
    800000f6:	422000ef          	jal	ra,80000518 <_reset_regs>
    800000fa:	0001da17          	auipc	s4,0x1d
    800000fe:	f06a0a13          	addi	s4,s4,-250 # 8001d000 <coldboot_lottery>
    80000102:	00046a97          	auipc	s5,0x46
    80000106:	9c6a8a93          	addi	s5,s5,-1594 # 80045ac8 <_bss_end>

000000008000010a <_bss_zero>:
    8000010a:	000a3023          	sd	zero,0(s4)
    8000010e:	0a21                	addi	s4,s4,8
    80000110:	ff5a4de3          	blt	s4,s5,8000010a <_bss_zero>
    80000114:	00000a17          	auipc	s4,0x0
    80000118:	2e4a0a13          	addi	s4,s4,740 # 800003f8 <_start_hang>
    8000011c:	305a1073          	csrw	mtvec,s4
    80000120:	00046a17          	auipc	s4,0x46
    80000124:	ee0a0a13          	addi	s4,s4,-288 # 80046000 <_fw_end>
    80000128:	6a89                	lui	s5,0x2
    8000012a:	015a0133          	add	sp,s4,s5
    8000012e:	00050433          	add	s0,a0,zero
    80000132:	000584b3          	add	s1,a1,zero
    80000136:	00060933          	add	s2,a2,zero
    8000013a:	000689b3          	add	s3,a3,zero
    8000013e:	00070a33          	add	s4,a4,zero
    80000142:	41e000ef          	jal	ra,80000560 <fw_save_info>
    80000146:	00040533          	add	a0,s0,zero
    8000014a:	000485b3          	add	a1,s1,zero
    8000014e:	00090633          	add	a2,s2,zero
    80000152:	000986b3          	add	a3,s3,zero
    80000156:	000a0733          	add	a4,s4,zero
    8000015a:	00050433          	add	s0,a0,zero
    8000015e:	000584b3          	add	s1,a1,zero
    80000162:	00060933          	add	s2,a2,zero
    80000166:	000689b3          	add	s3,a3,zero
    8000016a:	00070a33          	add	s4,a4,zero
    8000016e:	027030ef          	jal	ra,80003994 <fw_platform_init>
    80000172:	000502b3          	add	t0,a0,zero
    80000176:	00040533          	add	a0,s0,zero
    8000017a:	000485b3          	add	a1,s1,zero
    8000017e:	00090633          	add	a2,s2,zero
    80000182:	000986b3          	add	a3,s3,zero
    80000186:	000a0733          	add	a4,s4,zero
    8000018a:	000285b3          	add	a1,t0,zero
    8000018e:	00019717          	auipc	a4,0x19
    80000192:	ffa70713          	addi	a4,a4,-6 # 80019188 <platform>
    80000196:	05076b83          	lwu	s7,80(a4)
    8000019a:	05476c03          	lwu	s8,84(a4)
    8000019e:	00046217          	auipc	tp,0x46
    800001a2:	e6220213          	addi	tp,tp,-414 # 80046000 <_fw_end>
    800001a6:	038b87b3          	mul	a5,s7,s8
    800001aa:	923e                	add	tp,tp,a5
    800001ac:	00020e33          	add	t3,tp,zero
    800001b0:	4385                	li	t2,1
    800001b2:	4301                	li	t1,0

00000000800001b4 <_scratch_init>:
    800001b4:	000e0233          	add	tp,t3,zero
    800001b8:	026c07b3          	mul	a5,s8,t1
    800001bc:	40f20233          	sub	tp,tp,a5
    800001c0:	6785                	lui	a5,0x1
    800001c2:	40f20233          	sub	tp,tp,a5
    800001c6:	00000717          	auipc	a4,0x0
    800001ca:	e3a70713          	addi	a4,a4,-454 # 80000000 <_fw_start>
    800001ce:	40ee07b3          	sub	a5,t3,a4
    800001d2:	00e23023          	sd	a4,0(tp) # 0 <_fw_start-0x80000000>
    800001d6:	00f23423          	sd	a5,8(tp) # 8 <_fw_start-0x7ffffff8>
    800001da:	00050433          	add	s0,a0,zero
    800001de:	000584b3          	add	s1,a1,zero
    800001e2:	00060933          	add	s2,a2,zero
    800001e6:	382000ef          	jal	ra,80000568 <fw_next_arg1>
    800001ea:	00a23823          	sd	a0,16(tp) # 10 <_fw_start-0x7ffffff0>
    800001ee:	00040533          	add	a0,s0,zero
    800001f2:	000485b3          	add	a1,s1,zero
    800001f6:	00090633          	add	a2,s2,zero
    800001fa:	00050433          	add	s0,a0,zero
    800001fe:	000584b3          	add	s1,a1,zero
    80000202:	00060933          	add	s2,a2,zero
    80000206:	36a000ef          	jal	ra,80000570 <fw_next_addr>
    8000020a:	00a23c23          	sd	a0,24(tp) # 18 <_fw_start-0x7fffffe8>
    8000020e:	00040533          	add	a0,s0,zero
    80000212:	000485b3          	add	a1,s1,zero
    80000216:	00090633          	add	a2,s2,zero
    8000021a:	00050433          	add	s0,a0,zero
    8000021e:	000584b3          	add	s1,a1,zero
    80000222:	00060933          	add	s2,a2,zero
    80000226:	35a000ef          	jal	ra,80000580 <fw_next_mode>
    8000022a:	02a23023          	sd	a0,32(tp) # 20 <_fw_start-0x7fffffe0>
    8000022e:	00040533          	add	a0,s0,zero
    80000232:	000485b3          	add	a1,s1,zero
    80000236:	00090633          	add	a2,s2,zero
    8000023a:	00000717          	auipc	a4,0x0
    8000023e:	10c70713          	addi	a4,a4,268 # 80000346 <_start_warm>
    80000242:	02e23423          	sd	a4,40(tp) # 28 <_fw_start-0x7fffffd8>
    80000246:	00019717          	auipc	a4,0x19
    8000024a:	f4270713          	addi	a4,a4,-190 # 80019188 <platform>
    8000024e:	02e23823          	sd	a4,48(tp) # 30 <_fw_start-0x7fffffd0>
    80000252:	00000717          	auipc	a4,0x0
    80000256:	17670713          	addi	a4,a4,374 # 800003c8 <_hartid_to_scratch>
    8000025a:	02e23c23          	sd	a4,56(tp) # 38 <_fw_start-0x7fffffc8>
    8000025e:	00000717          	auipc	a4,0x0
    80000262:	23870713          	addi	a4,a4,568 # 80000496 <_trap_exit>
    80000266:	04e23023          	sd	a4,64(tp) # 40 <_fw_start-0x7fffffc0>
    8000026a:	04023423          	sd	zero,72(tp) # 48 <_fw_start-0x7fffffb8>
    8000026e:	00050433          	add	s0,a0,zero
    80000272:	000584b3          	add	s1,a1,zero
    80000276:	00060933          	add	s2,a2,zero
    8000027a:	30e000ef          	jal	ra,80000588 <fw_options>
    8000027e:	04a23823          	sd	a0,80(tp) # 50 <_fw_start-0x7fffffb0>
    80000282:	00040533          	add	a0,s0,zero
    80000286:	000485b3          	add	a1,s1,zero
    8000028a:	00090633          	add	a2,s2,zero
    8000028e:	931e                	add	t1,t1,t2
    80000290:	f37342e3          	blt	t1,s7,800001b4 <_scratch_init>
    80000294:	c1d9                	beqz	a1,8000031a <_fdt_reloc_done>
    80000296:	0ff00713          	li	a4,255
    8000029a:	00050433          	add	s0,a0,zero
    8000029e:	000584b3          	add	s1,a1,zero
    800002a2:	00060933          	add	s2,a2,zero
    800002a6:	2c2000ef          	jal	ra,80000568 <fw_next_arg1>
    800002aa:	00050333          	add	t1,a0,zero
    800002ae:	00040533          	add	a0,s0,zero
    800002b2:	000485b3          	add	a1,s1,zero
    800002b6:	00090633          	add	a2,s2,zero
    800002ba:	06030063          	beqz	t1,8000031a <_fdt_reloc_done>
    800002be:	04b30e63          	beq	t1,a1,8000031a <_fdt_reloc_done>
    800002c2:	000582b3          	add	t0,a1,zero
    800002c6:	0042e383          	lwu	t2,4(t0)
    800002ca:	00038e33          	add	t3,t2,zero
    800002ce:	010e5e13          	srli	t3,t3,0x10
    800002d2:	00ee7e33          	and	t3,t3,a4
    800002d6:	0e22                	slli	t3,t3,0x8
    800002d8:	00038eb3          	add	t4,t2,zero
    800002dc:	008ede93          	srli	t4,t4,0x8
    800002e0:	00eefeb3          	and	t4,t4,a4
    800002e4:	0ec2                	slli	t4,t4,0x10
    800002e6:	00038f33          	add	t5,t2,zero
    800002ea:	00ef7f33          	and	t5,t5,a4
    800002ee:	0f62                	slli	t5,t5,0x18
    800002f0:	0183d393          	srli	t2,t2,0x18
    800002f4:	00e3f3b3          	and	t2,t2,a4
    800002f8:	01c3e3b3          	or	t2,t2,t3
    800002fc:	01d3e3b3          	or	t2,t2,t4
    80000300:	01e3e3b3          	or	t2,t2,t5
    80000304:	939a                	add	t2,t2,t1
    80000306:	00735a63          	bge	t1,t2,8000031a <_fdt_reloc_done>

000000008000030a <_fdt_reloc_again>:
    8000030a:	0002be03          	ld	t3,0(t0)
    8000030e:	01c33023          	sd	t3,0(t1)
    80000312:	02a1                	addi	t0,t0,8
    80000314:	0321                	addi	t1,t1,8
    80000316:	fe734ae3          	blt	t1,t2,8000030a <_fdt_reloc_again>

000000008000031a <_fdt_reloc_done>:
    8000031a:	4289                	li	t0,2
    8000031c:	00019317          	auipc	t1,0x19
    80000320:	cf430313          	addi	t1,t1,-780 # 80019010 <_boot_status>
    80000324:	00533023          	sd	t0,0(t1)
    80000328:	0330000f          	fence	rw,rw
    8000032c:	a829                	j	80000346 <_start_warm>

000000008000032e <_wait_for_boot_hart>:
    8000032e:	4289                	li	t0,2
    80000330:	00019317          	auipc	t1,0x19
    80000334:	ce030313          	addi	t1,t1,-800 # 80019010 <_boot_status>
    80000338:	00033303          	ld	t1,0(t1)
    8000033c:	0001                	nop
    8000033e:	0001                	nop
    80000340:	0001                	nop
    80000342:	fe6296e3          	bne	t0,t1,8000032e <_wait_for_boot_hart>

0000000080000346 <_start_warm>:
    80000346:	4081                	li	ra,0
    80000348:	1d0000ef          	jal	ra,80000518 <_reset_regs>
    8000034c:	30401073          	csrw	mie,zero
    80000350:	34401073          	csrw	mip,zero
    80000354:	00019717          	auipc	a4,0x19
    80000358:	e3470713          	addi	a4,a4,-460 # 80019188 <platform>
    8000035c:	05076b83          	lwu	s7,80(a4)
    80000360:	05476c03          	lwu	s8,84(a4)
    80000364:	06873c83          	ld	s9,104(a4)
    80000368:	f1402b73          	csrr	s6,mhartid
    8000036c:	000c8e63          	beqz	s9,80000388 <_start_warm+0x42>
    80000370:	4701                	li	a4,0
    80000372:	000ce783          	lwu	a5,0(s9)
    80000376:	01678763          	beq	a5,s6,80000384 <_start_warm+0x3e>
    8000037a:	0c91                	addi	s9,s9,4
    8000037c:	0705                	addi	a4,a4,1
    8000037e:	ff774ae3          	blt	a4,s7,80000372 <_start_warm+0x2c>
    80000382:	577d                	li	a4,-1
    80000384:	00070b33          	add	s6,a4,zero
    80000388:	077b5863          	bge	s6,s7,800003f8 <_start_hang>
    8000038c:	00046217          	auipc	tp,0x46
    80000390:	c7420213          	addi	tp,tp,-908 # 80046000 <_fw_end>
    80000394:	038b87b3          	mul	a5,s7,s8
    80000398:	923e                	add	tp,tp,a5
    8000039a:	036c07b3          	mul	a5,s8,s6
    8000039e:	40f20233          	sub	tp,tp,a5
    800003a2:	6785                	lui	a5,0x1
    800003a4:	40f20233          	sub	tp,tp,a5
    800003a8:	34021073          	csrw	mscratch,tp
    800003ac:	00020133          	add	sp,tp,zero
    800003b0:	00000717          	auipc	a4,0x0
    800003b4:	05870713          	addi	a4,a4,88 # 80000408 <_trap_handler>
    800003b8:	30571073          	csrw	mtvec,a4
    800003bc:	34002573          	csrr	a0,mscratch
    800003c0:	1f4000ef          	jal	ra,800005b4 <sbi_init>
    800003c4:	a815                	j	800003f8 <_start_hang>
    800003c6:	0001                	nop

00000000800003c8 <_hartid_to_scratch>:
    800003c8:	00019397          	auipc	t2,0x19
    800003cc:	dc038393          	addi	t2,t2,-576 # 80019188 <platform>
    800003d0:	0543e283          	lwu	t0,84(t2)
    800003d4:	0503e383          	lwu	t2,80(t2)
    800003d8:	40b383b3          	sub	t2,t2,a1
    800003dc:	025383b3          	mul	t2,t2,t0
    800003e0:	00046317          	auipc	t1,0x46
    800003e4:	c2030313          	addi	t1,t1,-992 # 80046000 <_fw_end>
    800003e8:	931e                	add	t1,t1,t2
    800003ea:	6385                	lui	t2,0x1
    800003ec:	40730533          	sub	a0,t1,t2
    800003f0:	8082                	ret
    800003f2:	0001                	nop
    800003f4:	00000013          	nop

00000000800003f8 <_start_hang>:
    800003f8:	10500073          	wfi
    800003fc:	bff5                	j	800003f8 <_start_hang>
    800003fe:	0001                	nop
    80000400:	00058533          	add	a0,a1,zero
    80000404:	8082                	ret
    80000406:	0001                	nop

0000000080000408 <_trap_handler>:
    80000408:	34021273          	csrrw	tp,mscratch,tp
    8000040c:	04523423          	sd	t0,72(tp) # 48 <_fw_start-0x7fffffb8>
    80000410:	300022f3          	csrr	t0,mstatus
    80000414:	00b2d293          	srli	t0,t0,0xb
    80000418:	0032f293          	andi	t0,t0,3
    8000041c:	0032a293          	slti	t0,t0,3
    80000420:	12fd                	addi	t0,t0,-1
    80000422:	00414133          	xor	sp,sp,tp
    80000426:	0022f2b3          	and	t0,t0,sp
    8000042a:	00414133          	xor	sp,sp,tp
    8000042e:	005242b3          	xor	t0,tp,t0
    80000432:	ee22bc23          	sd	sp,-264(t0)
    80000436:	ee828113          	addi	sp,t0,-280
    8000043a:	04823283          	ld	t0,72(tp) # 48 <_fw_start-0x7fffffb8>
    8000043e:	f416                	sd	t0,40(sp)
    80000440:	34021273          	csrrw	tp,mscratch,tp
    80000444:	341022f3          	csrr	t0,mepc
    80000448:	e216                	sd	t0,256(sp)
    8000044a:	300022f3          	csrr	t0,mstatus
    8000044e:	e616                	sd	t0,264(sp)
    80000450:	ea02                	sd	zero,272(sp)
    80000452:	e002                	sd	zero,0(sp)
    80000454:	e406                	sd	ra,8(sp)
    80000456:	ec0e                	sd	gp,24(sp)
    80000458:	f012                	sd	tp,32(sp)
    8000045a:	f81a                	sd	t1,48(sp)
    8000045c:	fc1e                	sd	t2,56(sp)
    8000045e:	e0a2                	sd	s0,64(sp)
    80000460:	e4a6                	sd	s1,72(sp)
    80000462:	e8aa                	sd	a0,80(sp)
    80000464:	ecae                	sd	a1,88(sp)
    80000466:	f0b2                	sd	a2,96(sp)
    80000468:	f4b6                	sd	a3,104(sp)
    8000046a:	f8ba                	sd	a4,112(sp)
    8000046c:	fcbe                	sd	a5,120(sp)
    8000046e:	e142                	sd	a6,128(sp)
    80000470:	e546                	sd	a7,136(sp)
    80000472:	e94a                	sd	s2,144(sp)
    80000474:	ed4e                	sd	s3,152(sp)
    80000476:	f152                	sd	s4,160(sp)
    80000478:	f556                	sd	s5,168(sp)
    8000047a:	f95a                	sd	s6,176(sp)
    8000047c:	fd5e                	sd	s7,184(sp)
    8000047e:	e1e2                	sd	s8,192(sp)
    80000480:	e5e6                	sd	s9,200(sp)
    80000482:	e9ea                	sd	s10,208(sp)
    80000484:	edee                	sd	s11,216(sp)
    80000486:	f1f2                	sd	t3,224(sp)
    80000488:	f5f6                	sd	t4,232(sp)
    8000048a:	f9fa                	sd	t5,240(sp)
    8000048c:	fdfe                	sd	t6,248(sp)
    8000048e:	00010533          	add	a0,sp,zero
    80000492:	61b020ef          	jal	ra,800032ac <sbi_trap_handler>

0000000080000496 <_trap_exit>:
    80000496:	00853083          	ld	ra,8(a0)
    8000049a:	01053103          	ld	sp,16(a0)
    8000049e:	01853183          	ld	gp,24(a0)
    800004a2:	02053203          	ld	tp,32(a0)
    800004a6:	03053303          	ld	t1,48(a0)
    800004aa:	03853383          	ld	t2,56(a0)
    800004ae:	6120                	ld	s0,64(a0)
    800004b0:	6524                	ld	s1,72(a0)
    800004b2:	6d2c                	ld	a1,88(a0)
    800004b4:	7130                	ld	a2,96(a0)
    800004b6:	7534                	ld	a3,104(a0)
    800004b8:	7938                	ld	a4,112(a0)
    800004ba:	7d3c                	ld	a5,120(a0)
    800004bc:	08053803          	ld	a6,128(a0)
    800004c0:	08853883          	ld	a7,136(a0)
    800004c4:	09053903          	ld	s2,144(a0)
    800004c8:	09853983          	ld	s3,152(a0)
    800004cc:	0a053a03          	ld	s4,160(a0)
    800004d0:	0a853a83          	ld	s5,168(a0)
    800004d4:	0b053b03          	ld	s6,176(a0)
    800004d8:	0b853b83          	ld	s7,184(a0)
    800004dc:	0c053c03          	ld	s8,192(a0)
    800004e0:	0c853c83          	ld	s9,200(a0)
    800004e4:	0d053d03          	ld	s10,208(a0)
    800004e8:	0d853d83          	ld	s11,216(a0)
    800004ec:	0e053e03          	ld	t3,224(a0)
    800004f0:	0e853e83          	ld	t4,232(a0)
    800004f4:	0f053f03          	ld	t5,240(a0)
    800004f8:	0f853f83          	ld	t6,248(a0)
    800004fc:	10053283          	ld	t0,256(a0)
    80000500:	34129073          	csrw	mepc,t0
    80000504:	10853283          	ld	t0,264(a0)
    80000508:	30029073          	csrw	mstatus,t0
    8000050c:	02853283          	ld	t0,40(a0)
    80000510:	6928                	ld	a0,80(a0)
    80000512:	30200073          	mret
    80000516:	0001                	nop

0000000080000518 <_reset_regs>:
    80000518:	0000100f          	fence.i
    8000051c:	4101                	li	sp,0
    8000051e:	4181                	li	gp,0
    80000520:	4201                	li	tp,0
    80000522:	4281                	li	t0,0
    80000524:	4301                	li	t1,0
    80000526:	4381                	li	t2,0
    80000528:	4401                	li	s0,0
    8000052a:	4481                	li	s1,0
    8000052c:	4681                	li	a3,0
    8000052e:	4701                	li	a4,0
    80000530:	4781                	li	a5,0
    80000532:	4801                	li	a6,0
    80000534:	4881                	li	a7,0
    80000536:	4901                	li	s2,0
    80000538:	4981                	li	s3,0
    8000053a:	4a01                	li	s4,0
    8000053c:	4a81                	li	s5,0
    8000053e:	4b01                	li	s6,0
    80000540:	4b81                	li	s7,0
    80000542:	4c01                	li	s8,0
    80000544:	4c81                	li	s9,0
    80000546:	4d01                	li	s10,0
    80000548:	4d81                	li	s11,0
    8000054a:	4e01                	li	t3,0
    8000054c:	4e81                	li	t4,0
    8000054e:	4f01                	li	t5,0
    80000550:	4f81                	li	t6,0
    80000552:	34005073          	csrwi	mscratch,0
    80000556:	8082                	ret

0000000080000558 <fw_boot_hart>:
    80000558:	557d                	li	a0,-1
    8000055a:	8082                	ret
    8000055c:	00000013          	nop

0000000080000560 <fw_save_info>:
    80000560:	8082                	ret
    80000562:	0001                	nop
    80000564:	00000013          	nop

0000000080000568 <fw_next_arg1>:
    80000568:	4110051b          	addiw	a0,zero,1041
    8000056c:	0556                	slli	a0,a0,0x15
    8000056e:	8082                	ret

0000000080000570 <fw_next_addr>:
    80000570:	00200517          	auipc	a0,0x200
    80000574:	a9050513          	addi	a0,a0,-1392 # 80200000 <payload_bin>
    80000578:	8082                	ret
    8000057a:	0001                	nop
    8000057c:	00000013          	nop

0000000080000580 <fw_next_mode>:
    80000580:	4505                	li	a0,1
    80000582:	8082                	ret
    80000584:	00000013          	nop

0000000080000588 <fw_options>:
    80000588:	00000533          	add	a0,zero,zero
    8000058c:	8082                	ret
	...

0000000080000598 <memcpy>:
    80000598:	6830106f          	j	8000241a <sbi_memcpy>
    8000059c:	00000013          	nop

00000000800005a0 <memset>:
    800005a0:	6590106f          	j	800023f8 <sbi_memset>
    800005a4:	00000013          	nop

00000000800005a8 <memmove>:
    800005a8:	6950106f          	j	8000243c <sbi_memmove>
    800005ac:	00000013          	nop

00000000800005b0 <memcmp>:
    800005b0:	6dd0106f          	j	8000248c <sbi_memcmp>

00000000800005b4 <sbi_init>:
    800005b4:	7155                	addi	sp,sp,-208
    800005b6:	e1a2                	sd	s0,192(sp)
    800005b8:	e586                	sd	ra,200(sp)
    800005ba:	fd26                	sd	s1,184(sp)
    800005bc:	f94a                	sd	s2,176(sp)
    800005be:	f54e                	sd	s3,168(sp)
    800005c0:	f152                	sd	s4,160(sp)
    800005c2:	ed56                	sd	s5,152(sp)
    800005c4:	e95a                	sd	s6,144(sp)
    800005c6:	e55e                	sd	s7,136(sp)
    800005c8:	e162                	sd	s8,128(sp)
    800005ca:	0980                	addi	s0,sp,208
    800005cc:	f1402a73          	csrr	s4,mhartid
    800005d0:	07f00793          	li	a5,127
    800005d4:	000a099b          	sext.w	s3,s4
    800005d8:	03053903          	ld	s2,48(a0)
    800005dc:	0337e763          	bltu	a5,s3,8000060a <sbi_init+0x56>
    800005e0:	02090563          	beqz	s2,8000060a <sbi_init+0x56>
    800005e4:	05092a83          	lw	s5,80(s2)
    800005e8:	84aa                	mv	s1,a0
    800005ea:	85ce                	mv	a1,s3
    800005ec:	854a                	mv	a0,s2
    800005ee:	567000ef          	jal	ra,80001354 <sbi_platform_hart_index>
    800005f2:	2501                	sext.w	a0,a0
    800005f4:	01557b63          	bgeu	a0,s5,8000060a <sbi_init+0x56>
    800005f8:	709c                	ld	a5,32(s1)
    800005fa:	4705                	li	a4,1
    800005fc:	00e78963          	beq	a5,a4,8000060e <sbi_init+0x5a>
    80000600:	470d                	li	a4,3
    80000602:	00e78c63          	beq	a5,a4,8000061a <sbi_init+0x66>
    80000606:	0c078f63          	beqz	a5,800006e4 <sbi_init+0x130>
    8000060a:	0ec090ef          	jal	ra,800096f6 <sbi_hart_hang>
    8000060e:	05300513          	li	a0,83
    80000612:	66e030ef          	jal	ra,80003c80 <misa_extension_imp>
    80000616:	0c050d63          	beqz	a0,800006f0 <sbi_init+0x13c>
    8000061a:	4585                	li	a1,1
    8000061c:	0001d517          	auipc	a0,0x1d
    80000620:	9e450513          	addi	a0,a0,-1564 # 8001d000 <coldboot_lottery>
    80000624:	218040ef          	jal	ra,8000483c <atomic_xchg>
    80000628:	05893783          	ld	a5,88(s2)
    8000062c:	892a                	mv	s2,a0
    8000062e:	639c                	ld	a5,0(a5)
    80000630:	c399                	beqz	a5,80000636 <sbi_init+0x82>
    80000632:	9782                	jalr	a5
    80000634:	f979                	bnez	a0,8000060a <sbi_init+0x56>
    80000636:	0c091463          	bnez	s2,800006fe <sbi_init+0x14a>
    8000063a:	8526                	mv	a0,s1
    8000063c:	0304b903          	ld	s2,48(s1)
    80000640:	2d9010ef          	jal	ra,80002118 <sbi_scratch_init>
    80000644:	f179                	bnez	a0,8000060a <sbi_init+0x56>
    80000646:	85ce                	mv	a1,s3
    80000648:	8526                	mv	a0,s1
    8000064a:	657050ef          	jal	ra,800064a0 <sbi_domain_init>
    8000064e:	fd55                	bnez	a0,8000060a <sbi_init+0x56>
    80000650:	4521                	li	a0,8
    80000652:	363010ef          	jal	ra,800021b4 <sbi_scratch_alloc_offset>
    80000656:	0001da97          	auipc	s5,0x1d
    8000065a:	9aaa8a93          	addi	s5,s5,-1622 # 8001d000 <coldboot_lottery>
    8000065e:	00aab423          	sd	a0,8(s5)
    80000662:	d545                	beqz	a0,8000060a <sbi_init+0x56>
    80000664:	4605                	li	a2,1
    80000666:	85ce                	mv	a1,s3
    80000668:	8526                	mv	a0,s1
    8000066a:	362090ef          	jal	ra,800099cc <sbi_hsm_init>
    8000066e:	fd51                	bnez	a0,8000060a <sbi_init+0x56>
    80000670:	00090963          	beqz	s2,80000682 <sbi_init+0xce>
    80000674:	05893783          	ld	a5,88(s2)
    80000678:	679c                	ld	a5,8(a5)
    8000067a:	c781                	beqz	a5,80000682 <sbi_init+0xce>
    8000067c:	4505                	li	a0,1
    8000067e:	9782                	jalr	a5
    80000680:	f549                	bnez	a0,8000060a <sbi_init+0x56>
    80000682:	4585                	li	a1,1
    80000684:	8526                	mv	a0,s1
    80000686:	11e070ef          	jal	ra,800077a4 <sbi_hart_init>
    8000068a:	f141                	bnez	a0,8000060a <sbi_init+0x56>
    8000068c:	8526                	mv	a0,s1
    8000068e:	172050ef          	jal	ra,80005800 <sbi_console_init>
    80000692:	fd25                	bnez	a0,8000060a <sbi_init+0x56>
    80000694:	4585                	li	a1,1
    80000696:	8526                	mv	a0,s1
    80000698:	185010ef          	jal	ra,8000201c <sbi_pmu_init>
    8000069c:	f53d                	bnez	a0,8000060a <sbi_init+0x56>
    8000069e:	68bc                	ld	a5,80(s1)
    800006a0:	8b85                	andi	a5,a5,1
    800006a2:	ef99                	bnez	a5,800006c0 <sbi_init+0x10c>
    800006a4:	4605                	li	a2,1
    800006a6:	4585                	li	a1,1
    800006a8:	00016517          	auipc	a0,0x16
    800006ac:	96050513          	addi	a0,a0,-1696 # 80016008 <_PROCEDURE_LINKAGE_TABLE_+0xef8>
    800006b0:	008050ef          	jal	ra,800056b8 <sbi_printf>
    800006b4:	00016517          	auipc	a0,0x16
    800006b8:	96c50513          	addi	a0,a0,-1684 # 80016020 <_PROCEDURE_LINKAGE_TABLE_+0xf10>
    800006bc:	7fd040ef          	jal	ra,800056b8 <sbi_printf>
    800006c0:	4585                	li	a1,1
    800006c2:	8526                	mv	a0,s1
    800006c4:	353000ef          	jal	ra,80001216 <sbi_irqchip_init>
    800006c8:	862a                	mv	a2,a0
    800006ca:	1c050563          	beqz	a0,80000894 <sbi_init+0x2e0>
    800006ce:	00016597          	auipc	a1,0x16
    800006d2:	eca58593          	addi	a1,a1,-310 # 80016598 <__func__.0>
    800006d6:	00016517          	auipc	a0,0x16
    800006da:	a7250513          	addi	a0,a0,-1422 # 80016148 <_PROCEDURE_LINKAGE_TABLE_+0x1038>
    800006de:	7db040ef          	jal	ra,800056b8 <sbi_printf>
    800006e2:	b725                	j	8000060a <sbi_init+0x56>
    800006e4:	05500513          	li	a0,85
    800006e8:	598030ef          	jal	ra,80003c80 <misa_extension_imp>
    800006ec:	f20517e3          	bnez	a0,8000061a <sbi_init+0x66>
    800006f0:	05893783          	ld	a5,88(s2)
    800006f4:	639c                	ld	a5,0(a5)
    800006f6:	c781                	beqz	a5,800006fe <sbi_init+0x14a>
    800006f8:	9782                	jalr	a5
    800006fa:	f00518e3          	bnez	a0,8000060a <sbi_init+0x56>
    800006fe:	30402bf3          	csrr	s7,mie
    80000702:	6905                	lui	s2,0x1
    80000704:	80890913          	addi	s2,s2,-2040 # 808 <_fw_start-0x7ffff7f8>
    80000708:	30492073          	csrs	mie,s2
    8000070c:	0001d517          	auipc	a0,0x1d
    80000710:	90c50513          	addi	a0,a0,-1780 # 8001d018 <coldboot_lock>
    80000714:	2aa040ef          	jal	ra,800049be <spin_lock>
    80000718:	406a579b          	sraiw	a5,s4,0x6
    8000071c:	078e                	slli	a5,a5,0x3
    8000071e:	0001db17          	auipc	s6,0x1d
    80000722:	902b0b13          	addi	s6,s6,-1790 # 8001d020 <coldboot_wait_hmask>
    80000726:	9b3e                	add	s6,s6,a5
    80000728:	000b3783          	ld	a5,0(s6)
    8000072c:	4c05                	li	s8,1
    8000072e:	013c1c33          	sll	s8,s8,s3
    80000732:	0187e7b3          	or	a5,a5,s8
    80000736:	0001d517          	auipc	a0,0x1d
    8000073a:	8e250513          	addi	a0,a0,-1822 # 8001d018 <coldboot_lock>
    8000073e:	00fb3023          	sd	a5,0(s6)
    80000742:	0001da97          	auipc	s5,0x1d
    80000746:	8bea8a93          	addi	s5,s5,-1858 # 8001d000 <coldboot_lottery>
    8000074a:	2a0040ef          	jal	ra,800049ea <spin_unlock>
    8000074e:	010ab783          	ld	a5,16(s5)
    80000752:	0230000f          	fence	r,rw
    80000756:	eb89                	bnez	a5,80000768 <sbi_init+0x1b4>
    80000758:	10500073          	wfi
    8000075c:	344027f3          	csrr	a5,mip
    80000760:	0127f7b3          	and	a5,a5,s2
    80000764:	dbf5                	beqz	a5,80000758 <sbi_init+0x1a4>
    80000766:	b7e5                	j	8000074e <sbi_init+0x19a>
    80000768:	0001d517          	auipc	a0,0x1d
    8000076c:	8b050513          	addi	a0,a0,-1872 # 8001d018 <coldboot_lock>
    80000770:	24e040ef          	jal	ra,800049be <spin_lock>
    80000774:	000b3783          	ld	a5,0(s6)
    80000778:	fffc4c13          	not	s8,s8
    8000077c:	0001d517          	auipc	a0,0x1d
    80000780:	89c50513          	addi	a0,a0,-1892 # 8001d018 <coldboot_lock>
    80000784:	0187f7b3          	and	a5,a5,s8
    80000788:	00fb3023          	sd	a5,0(s6)
    8000078c:	25e040ef          	jal	ra,800049ea <spin_unlock>
    80000790:	304b9073          	csrw	mie,s7
    80000794:	f1402773          	csrr	a4,mhartid
    80000798:	02071793          	slli	a5,a4,0x20
    8000079c:	01d7d713          	srli	a4,a5,0x1d
    800007a0:	0001a797          	auipc	a5,0x1a
    800007a4:	b707b783          	ld	a5,-1168(a5) # 8001a310 <_GLOBAL_OFFSET_TABLE_+0x80>
    800007a8:	97ba                	add	a5,a5,a4
    800007aa:	6388                	ld	a0,0(a5)
    800007ac:	85ce                	mv	a1,s3
    800007ae:	0a0090ef          	jal	ra,8000984e <sbi_hsm_hart_get_state>
    800007b2:	e4054ce3          	bltz	a0,8000060a <sbi_init+0x56>
    800007b6:	4791                	li	a5,4
    800007b8:	0af50d63          	beq	a0,a5,80000872 <sbi_init+0x2be>
    800007bc:	008ab783          	ld	a5,8(s5)
    800007c0:	0304b903          	ld	s2,48(s1)
    800007c4:	e40783e3          	beqz	a5,8000060a <sbi_init+0x56>
    800007c8:	4601                	li	a2,0
    800007ca:	85ce                	mv	a1,s3
    800007cc:	8526                	mv	a0,s1
    800007ce:	1fe090ef          	jal	ra,800099cc <sbi_hsm_init>
    800007d2:	e2051ce3          	bnez	a0,8000060a <sbi_init+0x56>
    800007d6:	00090963          	beqz	s2,800007e8 <sbi_init+0x234>
    800007da:	05893783          	ld	a5,88(s2)
    800007de:	679c                	ld	a5,8(a5)
    800007e0:	c781                	beqz	a5,800007e8 <sbi_init+0x234>
    800007e2:	9782                	jalr	a5
    800007e4:	e20513e3          	bnez	a0,8000060a <sbi_init+0x56>
    800007e8:	4581                	li	a1,0
    800007ea:	8526                	mv	a0,s1
    800007ec:	7b9060ef          	jal	ra,800077a4 <sbi_hart_init>
    800007f0:	e0051de3          	bnez	a0,8000060a <sbi_init+0x56>
    800007f4:	4581                	li	a1,0
    800007f6:	8526                	mv	a0,s1
    800007f8:	025010ef          	jal	ra,8000201c <sbi_pmu_init>
    800007fc:	e00517e3          	bnez	a0,8000060a <sbi_init+0x56>
    80000800:	4581                	li	a1,0
    80000802:	8526                	mv	a0,s1
    80000804:	213000ef          	jal	ra,80001216 <sbi_irqchip_init>
    80000808:	e00511e3          	bnez	a0,8000060a <sbi_init+0x56>
    8000080c:	4581                	li	a1,0
    8000080e:	8526                	mv	a0,s1
    80000810:	0ad000ef          	jal	ra,800010bc <sbi_ipi_init>
    80000814:	de051be3          	bnez	a0,8000060a <sbi_init+0x56>
    80000818:	4581                	li	a1,0
    8000081a:	8526                	mv	a0,s1
    8000081c:	796020ef          	jal	ra,80002fb2 <sbi_tlb_init>
    80000820:	de0515e3          	bnez	a0,8000060a <sbi_init+0x56>
    80000824:	4581                	li	a1,0
    80000826:	8526                	mv	a0,s1
    80000828:	090020ef          	jal	ra,800028b8 <sbi_timer_init>
    8000082c:	dc051fe3          	bnez	a0,8000060a <sbi_init+0x56>
    80000830:	8526                	mv	a0,s1
    80000832:	2a9060ef          	jal	ra,800072da <sbi_hart_pmp_configure>
    80000836:	dc051ae3          	bnez	a0,8000060a <sbi_init+0x56>
    8000083a:	00090963          	beqz	s2,8000084c <sbi_init+0x298>
    8000083e:	05893783          	ld	a5,88(s2)
    80000842:	6b9c                	ld	a5,16(a5)
    80000844:	c781                	beqz	a5,8000084c <sbi_init+0x298>
    80000846:	9782                	jalr	a5
    80000848:	dc0511e3          	bnez	a0,8000060a <sbi_init+0x56>
    8000084c:	008ab783          	ld	a5,8(s5)
    80000850:	85ce                	mv	a1,s3
    80000852:	8526                	mv	a0,s1
    80000854:	97a6                	add	a5,a5,s1
    80000856:	6398                	ld	a4,0(a5)
    80000858:	0705                	addi	a4,a4,1
    8000085a:	e398                	sd	a4,0(a5)
    8000085c:	10c090ef          	jal	ra,80009968 <sbi_hsm_prepare_next_jump>
    80000860:	7094                	ld	a3,32(s1)
    80000862:	6c90                	ld	a2,24(s1)
    80000864:	688c                	ld	a1,16(s1)
    80000866:	020a1513          	slli	a0,s4,0x20
    8000086a:	4701                	li	a4,0
    8000086c:	9101                	srli	a0,a0,0x20
    8000086e:	699080ef          	jal	ra,80009706 <sbi_hart_switch_mode>
    80000872:	8526                	mv	a0,s1
    80000874:	398090ef          	jal	ra,80009c0c <sbi_hsm_hart_resume_start>
    80000878:	8526                	mv	a0,s1
    8000087a:	533060ef          	jal	ra,800075ac <sbi_hart_reinit>
    8000087e:	d80516e3          	bnez	a0,8000060a <sbi_init+0x56>
    80000882:	8526                	mv	a0,s1
    80000884:	257060ef          	jal	ra,800072da <sbi_hart_pmp_configure>
    80000888:	d80511e3          	bnez	a0,8000060a <sbi_init+0x56>
    8000088c:	8526                	mv	a0,s1
    8000088e:	3d2090ef          	jal	ra,80009c60 <sbi_hsm_hart_resume_finish>
    80000892:	b7f9                	j	80000860 <sbi_init+0x2ac>
    80000894:	4585                	li	a1,1
    80000896:	8526                	mv	a0,s1
    80000898:	025000ef          	jal	ra,800010bc <sbi_ipi_init>
    8000089c:	862a                	mv	a2,a0
    8000089e:	cd09                	beqz	a0,800008b8 <sbi_init+0x304>
    800008a0:	00016597          	auipc	a1,0x16
    800008a4:	cf858593          	addi	a1,a1,-776 # 80016598 <__func__.0>
    800008a8:	00016517          	auipc	a0,0x16
    800008ac:	8c850513          	addi	a0,a0,-1848 # 80016170 <_PROCEDURE_LINKAGE_TABLE_+0x1060>
    800008b0:	609040ef          	jal	ra,800056b8 <sbi_printf>
    800008b4:	643080ef          	jal	ra,800096f6 <sbi_hart_hang>
    800008b8:	4585                	li	a1,1
    800008ba:	8526                	mv	a0,s1
    800008bc:	6f6020ef          	jal	ra,80002fb2 <sbi_tlb_init>
    800008c0:	862a                	mv	a2,a0
    800008c2:	cd09                	beqz	a0,800008dc <sbi_init+0x328>
    800008c4:	00016597          	auipc	a1,0x16
    800008c8:	cd458593          	addi	a1,a1,-812 # 80016598 <__func__.0>
    800008cc:	00016517          	auipc	a0,0x16
    800008d0:	8c450513          	addi	a0,a0,-1852 # 80016190 <_PROCEDURE_LINKAGE_TABLE_+0x1080>
    800008d4:	5e5040ef          	jal	ra,800056b8 <sbi_printf>
    800008d8:	61f080ef          	jal	ra,800096f6 <sbi_hart_hang>
    800008dc:	4585                	li	a1,1
    800008de:	8526                	mv	a0,s1
    800008e0:	7d9010ef          	jal	ra,800028b8 <sbi_timer_init>
    800008e4:	862a                	mv	a2,a0
    800008e6:	cd09                	beqz	a0,80000900 <sbi_init+0x34c>
    800008e8:	00016597          	auipc	a1,0x16
    800008ec:	cb058593          	addi	a1,a1,-848 # 80016598 <__func__.0>
    800008f0:	00016517          	auipc	a0,0x16
    800008f4:	8c050513          	addi	a0,a0,-1856 # 800161b0 <_PROCEDURE_LINKAGE_TABLE_+0x10a0>
    800008f8:	5c1040ef          	jal	ra,800056b8 <sbi_printf>
    800008fc:	5fb080ef          	jal	ra,800096f6 <sbi_hart_hang>
    80000900:	6a5050ef          	jal	ra,800067a4 <sbi_ecall_init>
    80000904:	862a                	mv	a2,a0
    80000906:	cd09                	beqz	a0,80000920 <sbi_init+0x36c>
    80000908:	00016597          	auipc	a1,0x16
    8000090c:	c9058593          	addi	a1,a1,-880 # 80016598 <__func__.0>
    80000910:	00016517          	auipc	a0,0x16
    80000914:	8c850513          	addi	a0,a0,-1848 # 800161d8 <_PROCEDURE_LINKAGE_TABLE_+0x10c8>
    80000918:	5a1040ef          	jal	ra,800056b8 <sbi_printf>
    8000091c:	5db080ef          	jal	ra,800096f6 <sbi_hart_hang>
    80000920:	85ce                	mv	a1,s3
    80000922:	8526                	mv	a0,s1
    80000924:	251050ef          	jal	ra,80006374 <sbi_domain_finalize>
    80000928:	862a                	mv	a2,a0
    8000092a:	cd09                	beqz	a0,80000944 <sbi_init+0x390>
    8000092c:	00016597          	auipc	a1,0x16
    80000930:	c6c58593          	addi	a1,a1,-916 # 80016598 <__func__.0>
    80000934:	00016517          	auipc	a0,0x16
    80000938:	8cc50513          	addi	a0,a0,-1844 # 80016200 <_PROCEDURE_LINKAGE_TABLE_+0x10f0>
    8000093c:	57d040ef          	jal	ra,800056b8 <sbi_printf>
    80000940:	5b7080ef          	jal	ra,800096f6 <sbi_hart_hang>
    80000944:	8526                	mv	a0,s1
    80000946:	195060ef          	jal	ra,800072da <sbi_hart_pmp_configure>
    8000094a:	862a                	mv	a2,a0
    8000094c:	cd09                	beqz	a0,80000966 <sbi_init+0x3b2>
    8000094e:	00016597          	auipc	a1,0x16
    80000952:	c4a58593          	addi	a1,a1,-950 # 80016598 <__func__.0>
    80000956:	00016517          	auipc	a0,0x16
    8000095a:	8d250513          	addi	a0,a0,-1838 # 80016228 <_PROCEDURE_LINKAGE_TABLE_+0x1118>
    8000095e:	55b040ef          	jal	ra,800056b8 <sbi_printf>
    80000962:	595080ef          	jal	ra,800096f6 <sbi_hart_hang>
    80000966:	02090663          	beqz	s2,80000992 <sbi_init+0x3de>
    8000096a:	05893783          	ld	a5,88(s2)
    8000096e:	6b9c                	ld	a5,16(a5)
    80000970:	c38d                	beqz	a5,80000992 <sbi_init+0x3de>
    80000972:	4505                	li	a0,1
    80000974:	9782                	jalr	a5
    80000976:	862a                	mv	a2,a0
    80000978:	cd09                	beqz	a0,80000992 <sbi_init+0x3de>
    8000097a:	00016597          	auipc	a1,0x16
    8000097e:	c1e58593          	addi	a1,a1,-994 # 80016598 <__func__.0>
    80000982:	00016517          	auipc	a0,0x16
    80000986:	8ce50513          	addi	a0,a0,-1842 # 80016250 <_PROCEDURE_LINKAGE_TABLE_+0x1140>
    8000098a:	52f040ef          	jal	ra,800056b8 <sbi_printf>
    8000098e:	569080ef          	jal	ra,800096f6 <sbi_hart_hang>
    80000992:	0504b903          	ld	s2,80(s1)
    80000996:	00197913          	andi	s2,s2,1
    8000099a:	12091363          	bnez	s2,80000ac0 <sbi_init+0x50c>
    8000099e:	0304bb03          	ld	s6,48(s1)
    800009a2:	2c0b0463          	beqz	s6,80000c6a <sbi_init+0x6b6>
    800009a6:	008b0593          	addi	a1,s6,8
    800009aa:	00016517          	auipc	a0,0x16
    800009ae:	8d650513          	addi	a0,a0,-1834 # 80016280 <_PROCEDURE_LINKAGE_TABLE_+0x1170>
    800009b2:	507040ef          	jal	ra,800056b8 <sbi_printf>
    800009b6:	f3040b93          	addi	s7,s0,-208
    800009ba:	08000613          	li	a2,128
    800009be:	855a                	mv	a0,s6
    800009c0:	85de                	mv	a1,s7
    800009c2:	0fb000ef          	jal	ra,800012bc <sbi_platform_get_features_str>
    800009c6:	85de                	mv	a1,s7
    800009c8:	00016517          	auipc	a0,0x16
    800009cc:	8d850513          	addi	a0,a0,-1832 # 800162a0 <_PROCEDURE_LINKAGE_TABLE_+0x1190>
    800009d0:	4e9040ef          	jal	ra,800056b8 <sbi_printf>
    800009d4:	050b2583          	lw	a1,80(s6)
    800009d8:	00016517          	auipc	a0,0x16
    800009dc:	8e850513          	addi	a0,a0,-1816 # 800162c0 <_PROCEDURE_LINKAGE_TABLE_+0x11b0>
    800009e0:	4d9040ef          	jal	ra,800056b8 <sbi_printf>
    800009e4:	69e000ef          	jal	ra,80001082 <sbi_ipi_get_device>
    800009e8:	85aa                	mv	a1,a0
    800009ea:	26050b63          	beqz	a0,80000c60 <sbi_init+0x6ac>
    800009ee:	00016517          	auipc	a0,0x16
    800009f2:	8f250513          	addi	a0,a0,-1806 # 800162e0 <_PROCEDURE_LINKAGE_TABLE_+0x11d0>
    800009f6:	4c3040ef          	jal	ra,800056b8 <sbi_printf>
    800009fa:	683010ef          	jal	ra,8000287c <sbi_timer_get_device>
    800009fe:	85aa                	mv	a1,a0
    80000a00:	2a050063          	beqz	a0,80000ca0 <sbi_init+0x6ec>
    80000a04:	02053903          	ld	s2,32(a0)
    80000a08:	864a                	mv	a2,s2
    80000a0a:	00016517          	auipc	a0,0x16
    80000a0e:	8f650513          	addi	a0,a0,-1802 # 80016300 <_PROCEDURE_LINKAGE_TABLE_+0x11f0>
    80000a12:	4a7040ef          	jal	ra,800056b8 <sbi_printf>
    80000a16:	5b5040ef          	jal	ra,800057ca <sbi_console_get_device>
    80000a1a:	85aa                	mv	a1,a0
    80000a1c:	20050563          	beqz	a0,80000c26 <sbi_init+0x672>
    80000a20:	00016517          	auipc	a0,0x16
    80000a24:	90850513          	addi	a0,a0,-1784 # 80016328 <_PROCEDURE_LINKAGE_TABLE_+0x1218>
    80000a28:	491040ef          	jal	ra,800056b8 <sbi_printf>
    80000a2c:	76b080ef          	jal	ra,80009996 <sbi_hsm_get_device>
    80000a30:	85aa                	mv	a1,a0
    80000a32:	20050463          	beqz	a0,80000c3a <sbi_init+0x686>
    80000a36:	00016517          	auipc	a0,0x16
    80000a3a:	91250513          	addi	a0,a0,-1774 # 80016348 <_PROCEDURE_LINKAGE_TABLE_+0x1238>
    80000a3e:	47b040ef          	jal	ra,800056b8 <sbi_printf>
    80000a42:	4581                	li	a1,0
    80000a44:	4505                	li	a0,1
    80000a46:	2ad010ef          	jal	ra,800024f2 <sbi_system_reset_get_device>
    80000a4a:	85aa                	mv	a1,a0
    80000a4c:	1e050263          	beqz	a0,80000c30 <sbi_init+0x67c>
    80000a50:	00016517          	auipc	a0,0x16
    80000a54:	91850513          	addi	a0,a0,-1768 # 80016368 <_PROCEDURE_LINKAGE_TABLE_+0x1258>
    80000a58:	461040ef          	jal	ra,800056b8 <sbi_printf>
    80000a5c:	4581                	li	a1,0
    80000a5e:	4501                	li	a0,0
    80000a60:	293010ef          	jal	ra,800024f2 <sbi_system_reset_get_device>
    80000a64:	85aa                	mv	a1,a0
    80000a66:	1c050f63          	beqz	a0,80000c44 <sbi_init+0x690>
    80000a6a:	00016517          	auipc	a0,0x16
    80000a6e:	91e50513          	addi	a0,a0,-1762 # 80016388 <_PROCEDURE_LINKAGE_TABLE_+0x1278>
    80000a72:	447040ef          	jal	ra,800056b8 <sbi_printf>
    80000a76:	608c                	ld	a1,0(s1)
    80000a78:	00016517          	auipc	a0,0x16
    80000a7c:	93050513          	addi	a0,a0,-1744 # 800163a8 <_PROCEDURE_LINKAGE_TABLE_+0x1298>
    80000a80:	439040ef          	jal	ra,800056b8 <sbi_printf>
    80000a84:	648c                	ld	a1,8(s1)
    80000a86:	00016517          	auipc	a0,0x16
    80000a8a:	94a50513          	addi	a0,a0,-1718 # 800163d0 <_PROCEDURE_LINKAGE_TABLE_+0x12c0>
    80000a8e:	81a9                	srli	a1,a1,0xa
    80000a90:	2581                	sext.w	a1,a1
    80000a92:	427040ef          	jal	ra,800056b8 <sbi_printf>
    80000a96:	32b050ef          	jal	ra,800065c0 <sbi_ecall_version_major>
    80000a9a:	892a                	mv	s2,a0
    80000a9c:	333050ef          	jal	ra,800065ce <sbi_ecall_version_minor>
    80000aa0:	0005061b          	sext.w	a2,a0
    80000aa4:	0009059b          	sext.w	a1,s2
    80000aa8:	00016517          	auipc	a0,0x16
    80000aac:	95050513          	addi	a0,a0,-1712 # 800163f8 <_PROCEDURE_LINKAGE_TABLE_+0x12e8>
    80000ab0:	409040ef          	jal	ra,800056b8 <sbi_printf>
    80000ab4:	00015517          	auipc	a0,0x15
    80000ab8:	68c50513          	addi	a0,a0,1676 # 80016140 <_PROCEDURE_LINKAGE_TABLE_+0x1030>
    80000abc:	3fd040ef          	jal	ra,800056b8 <sbi_printf>
    80000ac0:	68bc                	ld	a5,80(s1)
    80000ac2:	8b85                	andi	a5,a5,1
    80000ac4:	e799                	bnez	a5,80000ad2 <sbi_init+0x51e>
    80000ac6:	00016517          	auipc	a0,0x16
    80000aca:	95a50513          	addi	a0,a0,-1702 # 80016420 <_PROCEDURE_LINKAGE_TABLE_+0x1310>
    80000ace:	4d8050ef          	jal	ra,80005fa6 <sbi_domain_dump_all>
    80000ad2:	f1402773          	csrr	a4,mhartid
    80000ad6:	68bc                	ld	a5,80(s1)
    80000ad8:	8b85                	andi	a5,a5,1
    80000ada:	10079063          	bnez	a5,80000bda <sbi_init+0x626>
    80000ade:	02071793          	slli	a5,a4,0x20
    80000ae2:	01d7d713          	srli	a4,a5,0x1d
    80000ae6:	0001a797          	auipc	a5,0x1a
    80000aea:	82a7b783          	ld	a5,-2006(a5) # 8001a310 <_GLOBAL_OFFSET_TABLE_+0x80>
    80000aee:	97ba                	add	a5,a5,a4
    80000af0:	0007b903          	ld	s2,0(a5)
    80000af4:	1ec030ef          	jal	ra,80003ce0 <misa_xlen>
    80000af8:	8b2a                	mv	s6,a0
    80000afa:	14a05a63          	blez	a0,80000c4e <sbi_init+0x69a>
    80000afe:	85ce                	mv	a1,s3
    80000b00:	00016517          	auipc	a0,0x16
    80000b04:	94850513          	addi	a0,a0,-1720 # 80016448 <_PROCEDURE_LINKAGE_TABLE_+0x1338>
    80000b08:	3b1040ef          	jal	ra,800056b8 <sbi_printf>
    80000b0c:	01890593          	addi	a1,s2,24
    80000b10:	00016517          	auipc	a0,0x16
    80000b14:	95850513          	addi	a0,a0,-1704 # 80016468 <_PROCEDURE_LINKAGE_TABLE_+0x1358>
    80000b18:	f3040913          	addi	s2,s0,-208
    80000b1c:	39d040ef          	jal	ra,800056b8 <sbi_printf>
    80000b20:	08000613          	li	a2,128
    80000b24:	8526                	mv	a0,s1
    80000b26:	85ca                	mv	a1,s2
    80000b28:	0cd060ef          	jal	ra,800073f4 <sbi_hart_get_priv_version_str>
    80000b2c:	85ca                	mv	a1,s2
    80000b2e:	00016517          	auipc	a0,0x16
    80000b32:	95a50513          	addi	a0,a0,-1702 # 80016488 <_PROCEDURE_LINKAGE_TABLE_+0x1378>
    80000b36:	383040ef          	jal	ra,800056b8 <sbi_printf>
    80000b3a:	08000613          	li	a2,128
    80000b3e:	855a                	mv	a0,s6
    80000b40:	85ca                	mv	a1,s2
    80000b42:	1e2030ef          	jal	ra,80003d24 <misa_string>
    80000b46:	85ca                	mv	a1,s2
    80000b48:	00016517          	auipc	a0,0x16
    80000b4c:	96050513          	addi	a0,a0,-1696 # 800164a8 <_PROCEDURE_LINKAGE_TABLE_+0x1398>
    80000b50:	369040ef          	jal	ra,800056b8 <sbi_printf>
    80000b54:	08000613          	li	a2,128
    80000b58:	8526                	mv	a0,s1
    80000b5a:	85ca                	mv	a1,s2
    80000b5c:	147060ef          	jal	ra,800074a2 <sbi_hart_get_extensions_str>
    80000b60:	85ca                	mv	a1,s2
    80000b62:	00016517          	auipc	a0,0x16
    80000b66:	96650513          	addi	a0,a0,-1690 # 800164c8 <_PROCEDURE_LINKAGE_TABLE_+0x13b8>
    80000b6a:	34f040ef          	jal	ra,800056b8 <sbi_printf>
    80000b6e:	8526                	mv	a0,s1
    80000b70:	70a060ef          	jal	ra,8000727a <sbi_hart_pmp_count>
    80000b74:	0005059b          	sext.w	a1,a0
    80000b78:	00016517          	auipc	a0,0x16
    80000b7c:	97050513          	addi	a0,a0,-1680 # 800164e8 <_PROCEDURE_LINKAGE_TABLE_+0x13d8>
    80000b80:	339040ef          	jal	ra,800056b8 <sbi_printf>
    80000b84:	8526                	mv	a0,s1
    80000b86:	70c060ef          	jal	ra,80007292 <sbi_hart_pmp_granularity>
    80000b8a:	85aa                	mv	a1,a0
    80000b8c:	00016517          	auipc	a0,0x16
    80000b90:	97c50513          	addi	a0,a0,-1668 # 80016508 <_PROCEDURE_LINKAGE_TABLE_+0x13f8>
    80000b94:	325040ef          	jal	ra,800056b8 <sbi_printf>
    80000b98:	8526                	mv	a0,s1
    80000b9a:	710060ef          	jal	ra,800072aa <sbi_hart_pmp_addrbits>
    80000b9e:	0005059b          	sext.w	a1,a0
    80000ba2:	00016517          	auipc	a0,0x16
    80000ba6:	98e50513          	addi	a0,a0,-1650 # 80016530 <_PROCEDURE_LINKAGE_TABLE_+0x1420>
    80000baa:	30f040ef          	jal	ra,800056b8 <sbi_printf>
    80000bae:	8526                	mv	a0,s1
    80000bb0:	6b2060ef          	jal	ra,80007262 <sbi_hart_mhpm_count>
    80000bb4:	0005059b          	sext.w	a1,a0
    80000bb8:	00016517          	auipc	a0,0x16
    80000bbc:	99850513          	addi	a0,a0,-1640 # 80016550 <_PROCEDURE_LINKAGE_TABLE_+0x1440>
    80000bc0:	2f9040ef          	jal	ra,800056b8 <sbi_printf>
    80000bc4:	00016617          	auipc	a2,0x16
    80000bc8:	9ac60613          	addi	a2,a2,-1620 # 80016570 <_PROCEDURE_LINKAGE_TABLE_+0x1460>
    80000bcc:	00016597          	auipc	a1,0x16
    80000bd0:	9b458593          	addi	a1,a1,-1612 # 80016580 <_PROCEDURE_LINKAGE_TABLE_+0x1470>
    80000bd4:	8526                	mv	a0,s1
    80000bd6:	63e060ef          	jal	ra,80007214 <sbi_hart_delegation_dump>
    80000bda:	0310000f          	fence	rw,w
    80000bde:	4785                	li	a5,1
    80000be0:	0001c517          	auipc	a0,0x1c
    80000be4:	43850513          	addi	a0,a0,1080 # 8001d018 <coldboot_lock>
    80000be8:	00fab823          	sd	a5,16(s5)
    80000bec:	4901                	li	s2,0
    80000bee:	5d1030ef          	jal	ra,800049be <spin_lock>
    80000bf2:	00019c17          	auipc	s8,0x19
    80000bf6:	7aec3c03          	ld	s8,1966(s8) # 8001a3a0 <_GLOBAL_OFFSET_TABLE_+0x110>
    80000bfa:	07f00b93          	li	s7,127
    80000bfe:	0001cb17          	auipc	s6,0x1c
    80000c02:	422b0b13          	addi	s6,s6,1058 # 8001d020 <coldboot_wait_hmask>
    80000c06:	01298463          	beq	s3,s2,80000c0e <sbi_init+0x65a>
    80000c0a:	0b2bf063          	bgeu	s7,s2,80000caa <sbi_init+0x6f6>
    80000c0e:	000c2783          	lw	a5,0(s8)
    80000c12:	2905                	addiw	s2,s2,1
    80000c14:	ff27f9e3          	bgeu	a5,s2,80000c06 <sbi_init+0x652>
    80000c18:	0001c517          	auipc	a0,0x1c
    80000c1c:	40050513          	addi	a0,a0,1024 # 8001d018 <coldboot_lock>
    80000c20:	5cb030ef          	jal	ra,800049ea <spin_unlock>
    80000c24:	b125                	j	8000084c <sbi_init+0x298>
    80000c26:	00015597          	auipc	a1,0x15
    80000c2a:	3da58593          	addi	a1,a1,986 # 80016000 <_PROCEDURE_LINKAGE_TABLE_+0xef0>
    80000c2e:	bbcd                	j	80000a20 <sbi_init+0x46c>
    80000c30:	00015597          	auipc	a1,0x15
    80000c34:	3d058593          	addi	a1,a1,976 # 80016000 <_PROCEDURE_LINKAGE_TABLE_+0xef0>
    80000c38:	bd21                	j	80000a50 <sbi_init+0x49c>
    80000c3a:	00015597          	auipc	a1,0x15
    80000c3e:	3c658593          	addi	a1,a1,966 # 80016000 <_PROCEDURE_LINKAGE_TABLE_+0xef0>
    80000c42:	bbd5                	j	80000a36 <sbi_init+0x482>
    80000c44:	00015597          	auipc	a1,0x15
    80000c48:	3bc58593          	addi	a1,a1,956 # 80016000 <_PROCEDURE_LINKAGE_TABLE_+0xef0>
    80000c4c:	bd39                	j	80000a6a <sbi_init+0x4b6>
    80000c4e:	85aa                	mv	a1,a0
    80000c50:	00015517          	auipc	a0,0x15
    80000c54:	7d850513          	addi	a0,a0,2008 # 80016428 <_PROCEDURE_LINKAGE_TABLE_+0x1318>
    80000c58:	261040ef          	jal	ra,800056b8 <sbi_printf>
    80000c5c:	29b080ef          	jal	ra,800096f6 <sbi_hart_hang>
    80000c60:	00015597          	auipc	a1,0x15
    80000c64:	3a058593          	addi	a1,a1,928 # 80016000 <_PROCEDURE_LINKAGE_TABLE_+0xef0>
    80000c68:	b359                	j	800009ee <sbi_init+0x43a>
    80000c6a:	00016597          	auipc	a1,0x16
    80000c6e:	92658593          	addi	a1,a1,-1754 # 80016590 <_PROCEDURE_LINKAGE_TABLE_+0x1480>
    80000c72:	00015517          	auipc	a0,0x15
    80000c76:	60e50513          	addi	a0,a0,1550 # 80016280 <_PROCEDURE_LINKAGE_TABLE_+0x1170>
    80000c7a:	23f040ef          	jal	ra,800056b8 <sbi_printf>
    80000c7e:	f3040b13          	addi	s6,s0,-208
    80000c82:	08000613          	li	a2,128
    80000c86:	4501                	li	a0,0
    80000c88:	85da                	mv	a1,s6
    80000c8a:	632000ef          	jal	ra,800012bc <sbi_platform_get_features_str>
    80000c8e:	85da                	mv	a1,s6
    80000c90:	00015517          	auipc	a0,0x15
    80000c94:	61050513          	addi	a0,a0,1552 # 800162a0 <_PROCEDURE_LINKAGE_TABLE_+0x1190>
    80000c98:	221040ef          	jal	ra,800056b8 <sbi_printf>
    80000c9c:	4581                	li	a1,0
    80000c9e:	bb2d                	j	800009d8 <sbi_init+0x424>
    80000ca0:	00015597          	auipc	a1,0x15
    80000ca4:	36058593          	addi	a1,a1,864 # 80016000 <_PROCEDURE_LINKAGE_TABLE_+0xef0>
    80000ca8:	b385                	j	80000a08 <sbi_init+0x454>
    80000caa:	40695793          	srai	a5,s2,0x6
    80000cae:	078e                	slli	a5,a5,0x3
    80000cb0:	97da                	add	a5,a5,s6
    80000cb2:	639c                	ld	a5,0(a5)
    80000cb4:	0127d7b3          	srl	a5,a5,s2
    80000cb8:	8b85                	andi	a5,a5,1
    80000cba:	dbb1                	beqz	a5,80000c0e <sbi_init+0x65a>
    80000cbc:	854a                	mv	a0,s2
    80000cbe:	3a2000ef          	jal	ra,80001060 <sbi_ipi_raw_send>
    80000cc2:	b7b1                	j	80000c0e <sbi_init+0x65a>

0000000080000cc4 <sbi_init_count>:
    80000cc4:	1141                	addi	sp,sp,-16
    80000cc6:	e422                	sd	s0,8(sp)
    80000cc8:	0800                	addi	s0,sp,16
    80000cca:	0001c717          	auipc	a4,0x1c
    80000cce:	33e73703          	ld	a4,830(a4) # 8001d008 <init_count_offset>
    80000cd2:	cf11                	beqz	a4,80000cee <sbi_init_count+0x2a>
    80000cd4:	02051693          	slli	a3,a0,0x20
    80000cd8:	01d6d793          	srli	a5,a3,0x1d
    80000cdc:	00019697          	auipc	a3,0x19
    80000ce0:	63c6b683          	ld	a3,1596(a3) # 8001a318 <_GLOBAL_OFFSET_TABLE_+0x88>
    80000ce4:	97b6                	add	a5,a5,a3
    80000ce6:	639c                	ld	a5,0(a5)
    80000ce8:	c799                	beqz	a5,80000cf6 <sbi_init_count+0x32>
    80000cea:	97ba                	add	a5,a5,a4
    80000cec:	6398                	ld	a4,0(a5)
    80000cee:	6422                	ld	s0,8(sp)
    80000cf0:	853a                	mv	a0,a4
    80000cf2:	0141                	addi	sp,sp,16
    80000cf4:	8082                	ret
    80000cf6:	6422                	ld	s0,8(sp)
    80000cf8:	4701                	li	a4,0
    80000cfa:	853a                	mv	a0,a4
    80000cfc:	0141                	addi	sp,sp,16
    80000cfe:	8082                	ret

0000000080000d00 <sbi_exit>:
    80000d00:	7179                	addi	sp,sp,-48
    80000d02:	f022                	sd	s0,32(sp)
    80000d04:	f406                	sd	ra,40(sp)
    80000d06:	ec26                	sd	s1,24(sp)
    80000d08:	e84a                	sd	s2,16(sp)
    80000d0a:	e44e                	sd	s3,8(sp)
    80000d0c:	1800                	addi	s0,sp,48
    80000d0e:	f14025f3          	csrr	a1,mhartid
    80000d12:	03053903          	ld	s2,48(a0)
    80000d16:	04090563          	beqz	s2,80000d60 <sbi_exit+0x60>
    80000d1a:	05092983          	lw	s3,80(s2)
    80000d1e:	84aa                	mv	s1,a0
    80000d20:	2581                	sext.w	a1,a1
    80000d22:	854a                	mv	a0,s2
    80000d24:	630000ef          	jal	ra,80001354 <sbi_platform_hart_index>
    80000d28:	2501                	sext.w	a0,a0
    80000d2a:	03357b63          	bgeu	a0,s3,80000d60 <sbi_exit+0x60>
    80000d2e:	05893783          	ld	a5,88(s2)
    80000d32:	6f9c                	ld	a5,24(a5)
    80000d34:	c391                	beqz	a5,80000d38 <sbi_exit+0x38>
    80000d36:	9782                	jalr	a5
    80000d38:	8526                	mv	a0,s1
    80000d3a:	228010ef          	jal	ra,80001f62 <sbi_pmu_exit>
    80000d3e:	8526                	mv	a0,s1
    80000d40:	3fb010ef          	jal	ra,8000293a <sbi_timer_exit>
    80000d44:	8526                	mv	a0,s1
    80000d46:	466000ef          	jal	ra,800011ac <sbi_ipi_exit>
    80000d4a:	8526                	mv	a0,s1
    80000d4c:	534000ef          	jal	ra,80001280 <sbi_irqchip_exit>
    80000d50:	05893783          	ld	a5,88(s2)
    80000d54:	739c                	ld	a5,32(a5)
    80000d56:	c391                	beqz	a5,80000d5a <sbi_exit+0x5a>
    80000d58:	9782                	jalr	a5
    80000d5a:	8526                	mv	a0,s1
    80000d5c:	517080ef          	jal	ra,80009a72 <sbi_hsm_exit>
    80000d60:	197080ef          	jal	ra,800096f6 <sbi_hart_hang>

0000000080000d64 <sbi_ipi_process_smode>:
    80000d64:	1141                	addi	sp,sp,-16
    80000d66:	e422                	sd	s0,8(sp)
    80000d68:	0800                	addi	s0,sp,16
    80000d6a:	34416073          	csrsi	mip,2
    80000d6e:	6422                	ld	s0,8(sp)
    80000d70:	0141                	addi	sp,sp,16
    80000d72:	8082                	ret

0000000080000d74 <sbi_ipi_process_halt>:
    80000d74:	1141                	addi	sp,sp,-16
    80000d76:	e022                	sd	s0,0(sp)
    80000d78:	e406                	sd	ra,8(sp)
    80000d7a:	0800                	addi	s0,sp,16
    80000d7c:	4585                	li	a1,1
    80000d7e:	61f080ef          	jal	ra,80009b9c <sbi_hsm_hart_stop>
    80000d82:	60a2                	ld	ra,8(sp)
    80000d84:	6402                	ld	s0,0(sp)
    80000d86:	0141                	addi	sp,sp,16
    80000d88:	8082                	ret

0000000080000d8a <sbi_ipi_send.isra.0>:
    80000d8a:	03f00793          	li	a5,63
    80000d8e:	0ac7e163          	bltu	a5,a2,80000e30 <sbi_ipi_send.isra.0+0xa6>
    80000d92:	7139                	addi	sp,sp,-64
    80000d94:	02061713          	slli	a4,a2,0x20
    80000d98:	f822                	sd	s0,48(sp)
    80000d9a:	f426                	sd	s1,40(sp)
    80000d9c:	e852                	sd	s4,16(sp)
    80000d9e:	fc06                	sd	ra,56(sp)
    80000da0:	f04a                	sd	s2,32(sp)
    80000da2:	ec4e                	sd	s3,24(sp)
    80000da4:	e456                	sd	s5,8(sp)
    80000da6:	e05a                	sd	s6,0(sp)
    80000da8:	0080                	addi	s0,sp,64
    80000daa:	0001ca17          	auipc	s4,0x1c
    80000dae:	286a0a13          	addi	s4,s4,646 # 8001d030 <ipi_ops_array>
    80000db2:	01d75793          	srli	a5,a4,0x1d
    80000db6:	97d2                	add	a5,a5,s4
    80000db8:	0007b983          	ld	s3,0(a5)
    80000dbc:	84b2                	mv	s1,a2
    80000dbe:	04098f63          	beqz	s3,80000e1c <sbi_ipi_send.isra.0+0x92>
    80000dc2:	02059793          	slli	a5,a1,0x20
    80000dc6:	01d7d713          	srli	a4,a5,0x1d
    80000dca:	00019797          	auipc	a5,0x19
    80000dce:	54e7b783          	ld	a5,1358(a5) # 8001a318 <_GLOBAL_OFFSET_TABLE_+0x88>
    80000dd2:	97ba                	add	a5,a5,a4
    80000dd4:	892e                	mv	s2,a1
    80000dd6:	638c                	ld	a1,0(a5)
    80000dd8:	c1b1                	beqz	a1,80000e1c <sbi_ipi_send.isra.0+0x92>
    80000dda:	200a3783          	ld	a5,512(s4)
    80000dde:	0209b703          	ld	a4,32(s3)
    80000de2:	8aaa                	mv	s5,a0
    80000de4:	00f58b33          	add	s6,a1,a5
    80000de8:	c709                	beqz	a4,80000df2 <sbi_ipi_send.isra.0+0x68>
    80000dea:	864a                	mv	a2,s2
    80000dec:	9702                	jalr	a4
    80000dee:	02054763          	bltz	a0,80000e1c <sbi_ipi_send.isra.0+0x92>
    80000df2:	85da                	mv	a1,s6
    80000df4:	8526                	mv	a0,s1
    80000df6:	2c3030ef          	jal	ra,800048b8 <atomic_raw_set_bit>
    80000dfa:	0110000f          	fence	w,w
    80000dfe:	208a3783          	ld	a5,520(s4)
    80000e02:	c789                	beqz	a5,80000e0c <sbi_ipi_send.isra.0+0x82>
    80000e04:	739c                	ld	a5,32(a5)
    80000e06:	c399                	beqz	a5,80000e0c <sbi_ipi_send.isra.0+0x82>
    80000e08:	854a                	mv	a0,s2
    80000e0a:	9782                	jalr	a5
    80000e0c:	4519                	li	a0,6
    80000e0e:	072010ef          	jal	ra,80001e80 <sbi_pmu_ctr_incr_fw>
    80000e12:	0289b783          	ld	a5,40(s3)
    80000e16:	c399                	beqz	a5,80000e1c <sbi_ipi_send.isra.0+0x92>
    80000e18:	8556                	mv	a0,s5
    80000e1a:	9782                	jalr	a5
    80000e1c:	70e2                	ld	ra,56(sp)
    80000e1e:	7442                	ld	s0,48(sp)
    80000e20:	74a2                	ld	s1,40(sp)
    80000e22:	7902                	ld	s2,32(sp)
    80000e24:	69e2                	ld	s3,24(sp)
    80000e26:	6a42                	ld	s4,16(sp)
    80000e28:	6aa2                	ld	s5,8(sp)
    80000e2a:	6b02                	ld	s6,0(sp)
    80000e2c:	6121                	addi	sp,sp,64
    80000e2e:	8082                	ret
    80000e30:	8082                	ret

0000000080000e32 <sbi_ipi_send_many>:
    80000e32:	711d                	addi	sp,sp,-96
    80000e34:	e8a2                	sd	s0,80(sp)
    80000e36:	fc4e                	sd	s3,56(sp)
    80000e38:	f852                	sd	s4,48(sp)
    80000e3a:	ec86                	sd	ra,88(sp)
    80000e3c:	e4a6                	sd	s1,72(sp)
    80000e3e:	e0ca                	sd	s2,64(sp)
    80000e40:	f456                	sd	s5,40(sp)
    80000e42:	f05a                	sd	s6,32(sp)
    80000e44:	ec5e                	sd	s7,24(sp)
    80000e46:	1080                	addi	s0,sp,96
    80000e48:	89b2                	mv	s3,a2
    80000e4a:	8a36                	mv	s4,a3
    80000e4c:	f1402773          	csrr	a4,mhartid
    80000e50:	02071793          	slli	a5,a4,0x20
    80000e54:	01d7d713          	srli	a4,a5,0x1d
    80000e58:	00019797          	auipc	a5,0x19
    80000e5c:	4b87b783          	ld	a5,1208(a5) # 8001a310 <_GLOBAL_OFFSET_TABLE_+0x80>
    80000e60:	97ba                	add	a5,a5,a4
    80000e62:	0007bb03          	ld	s6,0(a5)
    80000e66:	34002af3          	csrr	s5,mscratch
    80000e6a:	57fd                	li	a5,-1
    80000e6c:	06f59a63          	bne	a1,a5,80000ee0 <sbi_ipi_send_many+0xae>
    80000e70:	4901                	li	s2,0
    80000e72:	fa840b93          	addi	s7,s0,-88
    80000e76:	865e                	mv	a2,s7
    80000e78:	85ca                	mv	a1,s2
    80000e7a:	855a                	mv	a0,s6
    80000e7c:	219080ef          	jal	ra,80009894 <sbi_hsm_hart_interruptible_mask>
    80000e80:	e521                	bnez	a0,80000ec8 <sbi_ipi_send_many+0x96>
    80000e82:	fa843783          	ld	a5,-88(s0)
    80000e86:	84ca                	mv	s1,s2
    80000e88:	e799                	bnez	a5,80000e96 <sbi_ipi_send_many+0x64>
    80000e8a:	a03d                	j	80000eb8 <sbi_ipi_send_many+0x86>
    80000e8c:	8385                	srli	a5,a5,0x1
    80000e8e:	faf43423          	sd	a5,-88(s0)
    80000e92:	0485                	addi	s1,s1,1
    80000e94:	c395                	beqz	a5,80000eb8 <sbi_ipi_send_many+0x86>
    80000e96:	0017f713          	andi	a4,a5,1
    80000e9a:	db6d                	beqz	a4,80000e8c <sbi_ipi_send_many+0x5a>
    80000e9c:	0004859b          	sext.w	a1,s1
    80000ea0:	86d2                	mv	a3,s4
    80000ea2:	864e                	mv	a2,s3
    80000ea4:	8556                	mv	a0,s5
    80000ea6:	ee5ff0ef          	jal	ra,80000d8a <sbi_ipi_send.isra.0>
    80000eaa:	fa843783          	ld	a5,-88(s0)
    80000eae:	0485                	addi	s1,s1,1
    80000eb0:	8385                	srli	a5,a5,0x1
    80000eb2:	faf43423          	sd	a5,-88(s0)
    80000eb6:	f3e5                	bnez	a5,80000e96 <sbi_ipi_send_many+0x64>
    80000eb8:	04090913          	addi	s2,s2,64
    80000ebc:	865e                	mv	a2,s7
    80000ebe:	85ca                	mv	a1,s2
    80000ec0:	855a                	mv	a0,s6
    80000ec2:	1d3080ef          	jal	ra,80009894 <sbi_hsm_hart_interruptible_mask>
    80000ec6:	dd55                	beqz	a0,80000e82 <sbi_ipi_send_many+0x50>
    80000ec8:	4501                	li	a0,0
    80000eca:	60e6                	ld	ra,88(sp)
    80000ecc:	6446                	ld	s0,80(sp)
    80000ece:	64a6                	ld	s1,72(sp)
    80000ed0:	6906                	ld	s2,64(sp)
    80000ed2:	79e2                	ld	s3,56(sp)
    80000ed4:	7a42                	ld	s4,48(sp)
    80000ed6:	7aa2                	ld	s5,40(sp)
    80000ed8:	7b02                	ld	s6,32(sp)
    80000eda:	6be2                	ld	s7,24(sp)
    80000edc:	6125                	addi	sp,sp,96
    80000ede:	8082                	ret
    80000ee0:	84aa                	mv	s1,a0
    80000ee2:	fa840613          	addi	a2,s0,-88
    80000ee6:	855a                	mv	a0,s6
    80000ee8:	892e                	mv	s2,a1
    80000eea:	1ab080ef          	jal	ra,80009894 <sbi_hsm_hart_interruptible_mask>
    80000eee:	fd71                	bnez	a0,80000eca <sbi_ipi_send_many+0x98>
    80000ef0:	fa843783          	ld	a5,-88(s0)
    80000ef4:	00f4f733          	and	a4,s1,a5
    80000ef8:	fae43423          	sd	a4,-88(s0)
    80000efc:	87ba                	mv	a5,a4
    80000efe:	eb01                	bnez	a4,80000f0e <sbi_ipi_send_many+0xdc>
    80000f00:	b7e1                	j	80000ec8 <sbi_ipi_send_many+0x96>
    80000f02:	8385                	srli	a5,a5,0x1
    80000f04:	faf43423          	sd	a5,-88(s0)
    80000f08:	0905                	addi	s2,s2,1
    80000f0a:	873e                	mv	a4,a5
    80000f0c:	dfd5                	beqz	a5,80000ec8 <sbi_ipi_send_many+0x96>
    80000f0e:	8b05                	andi	a4,a4,1
    80000f10:	db6d                	beqz	a4,80000f02 <sbi_ipi_send_many+0xd0>
    80000f12:	0009059b          	sext.w	a1,s2
    80000f16:	86d2                	mv	a3,s4
    80000f18:	864e                	mv	a2,s3
    80000f1a:	8556                	mv	a0,s5
    80000f1c:	e6fff0ef          	jal	ra,80000d8a <sbi_ipi_send.isra.0>
    80000f20:	fa843783          	ld	a5,-88(s0)
    80000f24:	bff9                	j	80000f02 <sbi_ipi_send_many+0xd0>

0000000080000f26 <sbi_ipi_event_create>:
    80000f26:	1141                	addi	sp,sp,-16
    80000f28:	e422                	sd	s0,8(sp)
    80000f2a:	0800                	addi	s0,sp,16
    80000f2c:	cd1d                	beqz	a0,80000f6a <sbi_ipi_event_create+0x44>
    80000f2e:	791c                	ld	a5,48(a0)
    80000f30:	862a                	mv	a2,a0
    80000f32:	cf85                	beqz	a5,80000f6a <sbi_ipi_event_create+0x44>
    80000f34:	0001c597          	auipc	a1,0x1c
    80000f38:	0fc58593          	addi	a1,a1,252 # 8001d030 <ipi_ops_array>
    80000f3c:	87ae                	mv	a5,a1
    80000f3e:	4501                	li	a0,0
    80000f40:	04000693          	li	a3,64
    80000f44:	a021                	j	80000f4c <sbi_ipi_event_create+0x26>
    80000f46:	2505                	addiw	a0,a0,1
    80000f48:	00d50c63          	beq	a0,a3,80000f60 <sbi_ipi_event_create+0x3a>
    80000f4c:	6398                	ld	a4,0(a5)
    80000f4e:	07a1                	addi	a5,a5,8
    80000f50:	fb7d                	bnez	a4,80000f46 <sbi_ipi_event_create+0x20>
    80000f52:	00351793          	slli	a5,a0,0x3
    80000f56:	95be                	add	a1,a1,a5
    80000f58:	e190                	sd	a2,0(a1)
    80000f5a:	6422                	ld	s0,8(sp)
    80000f5c:	0141                	addi	sp,sp,16
    80000f5e:	8082                	ret
    80000f60:	6422                	ld	s0,8(sp)
    80000f62:	c1300513          	li	a0,-1005
    80000f66:	0141                	addi	sp,sp,16
    80000f68:	8082                	ret
    80000f6a:	5575                	li	a0,-3
    80000f6c:	b7fd                	j	80000f5a <sbi_ipi_event_create+0x34>

0000000080000f6e <sbi_ipi_event_destroy>:
    80000f6e:	1141                	addi	sp,sp,-16
    80000f70:	e422                	sd	s0,8(sp)
    80000f72:	0800                	addi	s0,sp,16
    80000f74:	03f00793          	li	a5,63
    80000f78:	00a7ed63          	bltu	a5,a0,80000f92 <sbi_ipi_event_destroy+0x24>
    80000f7c:	02051793          	slli	a5,a0,0x20
    80000f80:	01d7d513          	srli	a0,a5,0x1d
    80000f84:	0001c797          	auipc	a5,0x1c
    80000f88:	0ac78793          	addi	a5,a5,172 # 8001d030 <ipi_ops_array>
    80000f8c:	97aa                	add	a5,a5,a0
    80000f8e:	0007b023          	sd	zero,0(a5)
    80000f92:	6422                	ld	s0,8(sp)
    80000f94:	0141                	addi	sp,sp,16
    80000f96:	8082                	ret

0000000080000f98 <sbi_ipi_send_smode>:
    80000f98:	1141                	addi	sp,sp,-16
    80000f9a:	e022                	sd	s0,0(sp)
    80000f9c:	e406                	sd	ra,8(sp)
    80000f9e:	0800                	addi	s0,sp,16
    80000fa0:	4681                	li	a3,0
    80000fa2:	00018617          	auipc	a2,0x18
    80000fa6:	08e62603          	lw	a2,142(a2) # 80019030 <ipi_smode_event>
    80000faa:	e89ff0ef          	jal	ra,80000e32 <sbi_ipi_send_many>
    80000fae:	60a2                	ld	ra,8(sp)
    80000fb0:	6402                	ld	s0,0(sp)
    80000fb2:	0141                	addi	sp,sp,16
    80000fb4:	8082                	ret

0000000080000fb6 <sbi_ipi_clear_smode>:
    80000fb6:	1141                	addi	sp,sp,-16
    80000fb8:	e422                	sd	s0,8(sp)
    80000fba:	0800                	addi	s0,sp,16
    80000fbc:	34417073          	csrci	mip,2
    80000fc0:	6422                	ld	s0,8(sp)
    80000fc2:	0141                	addi	sp,sp,16
    80000fc4:	8082                	ret

0000000080000fc6 <sbi_ipi_send_halt>:
    80000fc6:	1141                	addi	sp,sp,-16
    80000fc8:	e022                	sd	s0,0(sp)
    80000fca:	e406                	sd	ra,8(sp)
    80000fcc:	0800                	addi	s0,sp,16
    80000fce:	4681                	li	a3,0
    80000fd0:	00018617          	auipc	a2,0x18
    80000fd4:	06462603          	lw	a2,100(a2) # 80019034 <ipi_halt_event>
    80000fd8:	e5bff0ef          	jal	ra,80000e32 <sbi_ipi_send_many>
    80000fdc:	60a2                	ld	ra,8(sp)
    80000fde:	6402                	ld	s0,0(sp)
    80000fe0:	0141                	addi	sp,sp,16
    80000fe2:	8082                	ret

0000000080000fe4 <sbi_ipi_process>:
    80000fe4:	7179                	addi	sp,sp,-48
    80000fe6:	f022                	sd	s0,32(sp)
    80000fe8:	f406                	sd	ra,40(sp)
    80000fea:	ec26                	sd	s1,24(sp)
    80000fec:	e84a                	sd	s2,16(sp)
    80000fee:	e44e                	sd	s3,8(sp)
    80000ff0:	e052                	sd	s4,0(sp)
    80000ff2:	1800                	addi	s0,sp,48
    80000ff4:	34002a73          	csrr	s4,mscratch
    80000ff8:	0001c997          	auipc	s3,0x1c
    80000ffc:	03898993          	addi	s3,s3,56 # 8001d030 <ipi_ops_array>
    80001000:	2009b483          	ld	s1,512(s3)
    80001004:	94d2                	add	s1,s1,s4
    80001006:	f1402973          	csrr	s2,mhartid
    8000100a:	451d                	li	a0,7
    8000100c:	675000ef          	jal	ra,80001e80 <sbi_pmu_ctr_incr_fw>
    80001010:	2089b783          	ld	a5,520(s3)
    80001014:	c791                	beqz	a5,80001020 <sbi_ipi_process+0x3c>
    80001016:	779c                	ld	a5,40(a5)
    80001018:	c781                	beqz	a5,80001020 <sbi_ipi_process+0x3c>
    8000101a:	0009051b          	sext.w	a0,s2
    8000101e:	9782                	jalr	a5
    80001020:	8526                	mv	a0,s1
    80001022:	4581                	li	a1,0
    80001024:	06d030ef          	jal	ra,80004890 <atomic_raw_xchg_ulong>
    80001028:	84aa                	mv	s1,a0
    8000102a:	c11d                	beqz	a0,80001050 <sbi_ipi_process+0x6c>
    8000102c:	4901                	li	s2,0
    8000102e:	02091713          	slli	a4,s2,0x20
    80001032:	01d75793          	srli	a5,a4,0x1d
    80001036:	0014f713          	andi	a4,s1,1
    8000103a:	97ce                	add	a5,a5,s3
    8000103c:	8085                	srli	s1,s1,0x1
    8000103e:	c719                	beqz	a4,8000104c <sbi_ipi_process+0x68>
    80001040:	639c                	ld	a5,0(a5)
    80001042:	8552                	mv	a0,s4
    80001044:	c781                	beqz	a5,8000104c <sbi_ipi_process+0x68>
    80001046:	7b9c                	ld	a5,48(a5)
    80001048:	c391                	beqz	a5,8000104c <sbi_ipi_process+0x68>
    8000104a:	9782                	jalr	a5
    8000104c:	2905                	addiw	s2,s2,1
    8000104e:	f0e5                	bnez	s1,8000102e <sbi_ipi_process+0x4a>
    80001050:	70a2                	ld	ra,40(sp)
    80001052:	7402                	ld	s0,32(sp)
    80001054:	64e2                	ld	s1,24(sp)
    80001056:	6942                	ld	s2,16(sp)
    80001058:	69a2                	ld	s3,8(sp)
    8000105a:	6a02                	ld	s4,0(sp)
    8000105c:	6145                	addi	sp,sp,48
    8000105e:	8082                	ret

0000000080001060 <sbi_ipi_raw_send>:
    80001060:	0001c797          	auipc	a5,0x1c
    80001064:	1d87b783          	ld	a5,472(a5) # 8001d238 <ipi_dev>
    80001068:	cf81                	beqz	a5,80001080 <sbi_ipi_raw_send+0x20>
    8000106a:	739c                	ld	a5,32(a5)
    8000106c:	cb91                	beqz	a5,80001080 <sbi_ipi_raw_send+0x20>
    8000106e:	1141                	addi	sp,sp,-16
    80001070:	e022                	sd	s0,0(sp)
    80001072:	e406                	sd	ra,8(sp)
    80001074:	0800                	addi	s0,sp,16
    80001076:	9782                	jalr	a5
    80001078:	60a2                	ld	ra,8(sp)
    8000107a:	6402                	ld	s0,0(sp)
    8000107c:	0141                	addi	sp,sp,16
    8000107e:	8082                	ret
    80001080:	8082                	ret

0000000080001082 <sbi_ipi_get_device>:
    80001082:	1141                	addi	sp,sp,-16
    80001084:	e422                	sd	s0,8(sp)
    80001086:	0800                	addi	s0,sp,16
    80001088:	6422                	ld	s0,8(sp)
    8000108a:	0001c517          	auipc	a0,0x1c
    8000108e:	1ae53503          	ld	a0,430(a0) # 8001d238 <ipi_dev>
    80001092:	0141                	addi	sp,sp,16
    80001094:	8082                	ret

0000000080001096 <sbi_ipi_set_device>:
    80001096:	1141                	addi	sp,sp,-16
    80001098:	e422                	sd	s0,8(sp)
    8000109a:	0800                	addi	s0,sp,16
    8000109c:	c901                	beqz	a0,800010ac <sbi_ipi_set_device+0x16>
    8000109e:	0001c797          	auipc	a5,0x1c
    800010a2:	f9278793          	addi	a5,a5,-110 # 8001d030 <ipi_ops_array>
    800010a6:	2087b703          	ld	a4,520(a5)
    800010aa:	c701                	beqz	a4,800010b2 <sbi_ipi_set_device+0x1c>
    800010ac:	6422                	ld	s0,8(sp)
    800010ae:	0141                	addi	sp,sp,16
    800010b0:	8082                	ret
    800010b2:	20a7b423          	sd	a0,520(a5)
    800010b6:	6422                	ld	s0,8(sp)
    800010b8:	0141                	addi	sp,sp,16
    800010ba:	8082                	ret

00000000800010bc <sbi_ipi_init>:
    800010bc:	1101                	addi	sp,sp,-32
    800010be:	e822                	sd	s0,16(sp)
    800010c0:	e426                	sd	s1,8(sp)
    800010c2:	e04a                	sd	s2,0(sp)
    800010c4:	ec06                	sd	ra,24(sp)
    800010c6:	1000                	addi	s0,sp,32
    800010c8:	892e                	mv	s2,a1
    800010ca:	84aa                	mv	s1,a0
    800010cc:	e5b1                	bnez	a1,80001118 <sbi_ipi_init+0x5c>
    800010ce:	0001c817          	auipc	a6,0x1c
    800010d2:	16283803          	ld	a6,354(a6) # 8001d230 <ipi_data_off>
    800010d6:	0c080663          	beqz	a6,800011a2 <sbi_ipi_init+0xe6>
    800010da:	00018717          	auipc	a4,0x18
    800010de:	f5670713          	addi	a4,a4,-170 # 80019030 <ipi_smode_event>
    800010e2:	431c                	lw	a5,0(a4)
    800010e4:	4354                	lw	a3,4(a4)
    800010e6:	03f00713          	li	a4,63
    800010ea:	8fd5                	or	a5,a5,a3
    800010ec:	0af76363          	bltu	a4,a5,80001192 <sbi_ipi_init+0xd6>
    800010f0:	9826                	add	a6,a6,s1
    800010f2:	00083023          	sd	zero,0(a6)
    800010f6:	789c                	ld	a5,48(s1)
    800010f8:	c799                	beqz	a5,80001106 <sbi_ipi_init+0x4a>
    800010fa:	6fbc                	ld	a5,88(a5)
    800010fc:	7bbc                	ld	a5,112(a5)
    800010fe:	c781                	beqz	a5,80001106 <sbi_ipi_init+0x4a>
    80001100:	854a                	mv	a0,s2
    80001102:	9782                	jalr	a5
    80001104:	e501                	bnez	a0,8000110c <sbi_ipi_init+0x50>
    80001106:	30446073          	csrsi	mie,8
    8000110a:	4501                	li	a0,0
    8000110c:	60e2                	ld	ra,24(sp)
    8000110e:	6442                	ld	s0,16(sp)
    80001110:	64a2                	ld	s1,8(sp)
    80001112:	6902                	ld	s2,0(sp)
    80001114:	6105                	addi	sp,sp,32
    80001116:	8082                	ret
    80001118:	4521                	li	a0,8
    8000111a:	09a010ef          	jal	ra,800021b4 <sbi_scratch_alloc_offset>
    8000111e:	0001c317          	auipc	t1,0x1c
    80001122:	f1230313          	addi	t1,t1,-238 # 8001d030 <ipi_ops_array>
    80001126:	20a33023          	sd	a0,512(t1)
    8000112a:	882a                	mv	a6,a0
    8000112c:	c93d                	beqz	a0,800011a2 <sbi_ipi_init+0xe6>
    8000112e:	00018597          	auipc	a1,0x18
    80001132:	f9a58593          	addi	a1,a1,-102 # 800190c8 <ipi_smode_ops>
    80001136:	799c                	ld	a5,48(a1)
    80001138:	cba5                	beqz	a5,800011a8 <sbi_ipi_init+0xec>
    8000113a:	869a                	mv	a3,t1
    8000113c:	879a                	mv	a5,t1
    8000113e:	4701                	li	a4,0
    80001140:	04000893          	li	a7,64
    80001144:	a021                	j	8000114c <sbi_ipi_init+0x90>
    80001146:	2705                	addiw	a4,a4,1
    80001148:	05170563          	beq	a4,a7,80001192 <sbi_ipi_init+0xd6>
    8000114c:	6390                	ld	a2,0(a5)
    8000114e:	07a1                	addi	a5,a5,8
    80001150:	fa7d                	bnez	a2,80001146 <sbi_ipi_init+0x8a>
    80001152:	00371793          	slli	a5,a4,0x3
    80001156:	75b0                	ld	a2,104(a1)
    80001158:	979a                	add	a5,a5,t1
    8000115a:	00018517          	auipc	a0,0x18
    8000115e:	ed650513          	addi	a0,a0,-298 # 80019030 <ipi_smode_event>
    80001162:	e38c                	sd	a1,0(a5)
    80001164:	c118                	sw	a4,0(a0)
    80001166:	c229                	beqz	a2,800011a8 <sbi_ipi_init+0xec>
    80001168:	4781                	li	a5,0
    8000116a:	04000613          	li	a2,64
    8000116e:	a021                	j	80001176 <sbi_ipi_init+0xba>
    80001170:	2785                	addiw	a5,a5,1
    80001172:	02c78063          	beq	a5,a2,80001192 <sbi_ipi_init+0xd6>
    80001176:	6298                	ld	a4,0(a3)
    80001178:	06a1                	addi	a3,a3,8
    8000117a:	fb7d                	bnez	a4,80001170 <sbi_ipi_init+0xb4>
    8000117c:	00379713          	slli	a4,a5,0x3
    80001180:	933a                	add	t1,t1,a4
    80001182:	00018717          	auipc	a4,0x18
    80001186:	f7e70713          	addi	a4,a4,-130 # 80019100 <ipi_halt_ops>
    8000118a:	00e33023          	sd	a4,0(t1)
    8000118e:	c15c                	sw	a5,4(a0)
    80001190:	b785                	j	800010f0 <sbi_ipi_init+0x34>
    80001192:	60e2                	ld	ra,24(sp)
    80001194:	6442                	ld	s0,16(sp)
    80001196:	64a2                	ld	s1,8(sp)
    80001198:	6902                	ld	s2,0(sp)
    8000119a:	c1300513          	li	a0,-1005
    8000119e:	6105                	addi	sp,sp,32
    800011a0:	8082                	ret
    800011a2:	c1200513          	li	a0,-1006
    800011a6:	b79d                	j	8000110c <sbi_ipi_init+0x50>
    800011a8:	5575                	li	a0,-3
    800011aa:	b78d                	j	8000110c <sbi_ipi_init+0x50>

00000000800011ac <sbi_ipi_exit>:
    800011ac:	1101                	addi	sp,sp,-32
    800011ae:	e822                	sd	s0,16(sp)
    800011b0:	e426                	sd	s1,8(sp)
    800011b2:	ec06                	sd	ra,24(sp)
    800011b4:	1000                	addi	s0,sp,32
    800011b6:	84aa                	mv	s1,a0
    800011b8:	30447073          	csrci	mie,8
    800011bc:	e29ff0ef          	jal	ra,80000fe4 <sbi_ipi_process>
    800011c0:	789c                	ld	a5,48(s1)
    800011c2:	c789                	beqz	a5,800011cc <sbi_ipi_exit+0x20>
    800011c4:	6fbc                	ld	a5,88(a5)
    800011c6:	7fbc                	ld	a5,120(a5)
    800011c8:	c391                	beqz	a5,800011cc <sbi_ipi_exit+0x20>
    800011ca:	9782                	jalr	a5
    800011cc:	60e2                	ld	ra,24(sp)
    800011ce:	6442                	ld	s0,16(sp)
    800011d0:	64a2                	ld	s1,8(sp)
    800011d2:	6105                	addi	sp,sp,32
    800011d4:	8082                	ret

00000000800011d6 <default_irqfn>:
    800011d6:	1141                	addi	sp,sp,-16
    800011d8:	e422                	sd	s0,8(sp)
    800011da:	0800                	addi	s0,sp,16
    800011dc:	6422                	ld	s0,8(sp)
    800011de:	c1800513          	li	a0,-1000
    800011e2:	0141                	addi	sp,sp,16
    800011e4:	8082                	ret

00000000800011e6 <sbi_irqchip_set_irqfn>:
    800011e6:	1141                	addi	sp,sp,-16
    800011e8:	e422                	sd	s0,8(sp)
    800011ea:	0800                	addi	s0,sp,16
    800011ec:	c509                	beqz	a0,800011f6 <sbi_irqchip_set_irqfn+0x10>
    800011ee:	00018797          	auipc	a5,0x18
    800011f2:	f4a7b523          	sd	a0,-182(a5) # 80019138 <ext_irqfn>
    800011f6:	6422                	ld	s0,8(sp)
    800011f8:	0141                	addi	sp,sp,16
    800011fa:	8082                	ret

00000000800011fc <sbi_irqchip_process>:
    800011fc:	1141                	addi	sp,sp,-16
    800011fe:	e022                	sd	s0,0(sp)
    80001200:	e406                	sd	ra,8(sp)
    80001202:	0800                	addi	s0,sp,16
    80001204:	00018797          	auipc	a5,0x18
    80001208:	f347b783          	ld	a5,-204(a5) # 80019138 <ext_irqfn>
    8000120c:	9782                	jalr	a5
    8000120e:	60a2                	ld	ra,8(sp)
    80001210:	6402                	ld	s0,0(sp)
    80001212:	0141                	addi	sp,sp,16
    80001214:	8082                	ret

0000000080001216 <sbi_irqchip_init>:
    80001216:	791c                	ld	a5,48(a0)
    80001218:	cf99                	beqz	a5,80001236 <sbi_irqchip_init+0x20>
    8000121a:	6fbc                	ld	a5,88(a5)
    8000121c:	73bc                	ld	a5,96(a5)
    8000121e:	cf81                	beqz	a5,80001236 <sbi_irqchip_init+0x20>
    80001220:	1141                	addi	sp,sp,-16
    80001222:	e022                	sd	s0,0(sp)
    80001224:	e406                	sd	ra,8(sp)
    80001226:	0800                	addi	s0,sp,16
    80001228:	852e                	mv	a0,a1
    8000122a:	9782                	jalr	a5
    8000122c:	c515                	beqz	a0,80001258 <sbi_irqchip_init+0x42>
    8000122e:	60a2                	ld	ra,8(sp)
    80001230:	6402                	ld	s0,0(sp)
    80001232:	0141                	addi	sp,sp,16
    80001234:	8082                	ret
    80001236:	00018717          	auipc	a4,0x18
    8000123a:	f0273703          	ld	a4,-254(a4) # 80019138 <ext_irqfn>
    8000123e:	00000797          	auipc	a5,0x0
    80001242:	f9878793          	addi	a5,a5,-104 # 800011d6 <default_irqfn>
    80001246:	00f70763          	beq	a4,a5,80001254 <sbi_irqchip_init+0x3e>
    8000124a:	6785                	lui	a5,0x1
    8000124c:	80078793          	addi	a5,a5,-2048 # 800 <_fw_start-0x7ffff800>
    80001250:	3047a073          	csrs	mie,a5
    80001254:	4501                	li	a0,0
    80001256:	8082                	ret
    80001258:	00018717          	auipc	a4,0x18
    8000125c:	ee073703          	ld	a4,-288(a4) # 80019138 <ext_irqfn>
    80001260:	00000797          	auipc	a5,0x0
    80001264:	f7678793          	addi	a5,a5,-138 # 800011d6 <default_irqfn>
    80001268:	00f70763          	beq	a4,a5,80001276 <sbi_irqchip_init+0x60>
    8000126c:	6785                	lui	a5,0x1
    8000126e:	80078793          	addi	a5,a5,-2048 # 800 <_fw_start-0x7ffff800>
    80001272:	3047a073          	csrs	mie,a5
    80001276:	60a2                	ld	ra,8(sp)
    80001278:	6402                	ld	s0,0(sp)
    8000127a:	4501                	li	a0,0
    8000127c:	0141                	addi	sp,sp,16
    8000127e:	8082                	ret

0000000080001280 <sbi_irqchip_exit>:
    80001280:	00018697          	auipc	a3,0x18
    80001284:	eb86b683          	ld	a3,-328(a3) # 80019138 <ext_irqfn>
    80001288:	00000797          	auipc	a5,0x0
    8000128c:	f4e78793          	addi	a5,a5,-178 # 800011d6 <default_irqfn>
    80001290:	7918                	ld	a4,48(a0)
    80001292:	00f68763          	beq	a3,a5,800012a0 <sbi_irqchip_exit+0x20>
    80001296:	6785                	lui	a5,0x1
    80001298:	80078793          	addi	a5,a5,-2048 # 800 <_fw_start-0x7ffff800>
    8000129c:	3047b073          	csrc	mie,a5
    800012a0:	cf09                	beqz	a4,800012ba <sbi_irqchip_exit+0x3a>
    800012a2:	6f3c                	ld	a5,88(a4)
    800012a4:	77bc                	ld	a5,104(a5)
    800012a6:	cb91                	beqz	a5,800012ba <sbi_irqchip_exit+0x3a>
    800012a8:	1141                	addi	sp,sp,-16
    800012aa:	e022                	sd	s0,0(sp)
    800012ac:	e406                	sd	ra,8(sp)
    800012ae:	0800                	addi	s0,sp,16
    800012b0:	9782                	jalr	a5
    800012b2:	60a2                	ld	ra,8(sp)
    800012b4:	6402                	ld	s0,0(sp)
    800012b6:	0141                	addi	sp,sp,16
    800012b8:	8082                	ret
    800012ba:	8082                	ret

00000000800012bc <sbi_platform_get_features_str>:
    800012bc:	c959                	beqz	a0,80001352 <sbi_platform_get_features_str+0x96>
    800012be:	7179                	addi	sp,sp,-48
    800012c0:	f022                	sd	s0,32(sp)
    800012c2:	ec26                	sd	s1,24(sp)
    800012c4:	f406                	sd	ra,40(sp)
    800012c6:	e84a                	sd	s2,16(sp)
    800012c8:	e44e                	sd	s3,8(sp)
    800012ca:	1800                	addi	s0,sp,48
    800012cc:	84ae                	mv	s1,a1
    800012ce:	c199                	beqz	a1,800012d4 <sbi_platform_get_features_str+0x18>
    800012d0:	89b2                	mv	s3,a2
    800012d2:	ea01                	bnez	a2,800012e2 <sbi_platform_get_features_str+0x26>
    800012d4:	70a2                	ld	ra,40(sp)
    800012d6:	7402                	ld	s0,32(sp)
    800012d8:	64e2                	ld	s1,24(sp)
    800012da:	6942                	ld	s2,16(sp)
    800012dc:	69a2                	ld	s3,8(sp)
    800012de:	6145                	addi	sp,sp,48
    800012e0:	8082                	ret
    800012e2:	892a                	mv	s2,a0
    800012e4:	4581                	li	a1,0
    800012e6:	8526                	mv	a0,s1
    800012e8:	110010ef          	jal	ra,800023f8 <sbi_memset>
    800012ec:	04893783          	ld	a5,72(s2)
    800012f0:	c3b1                	beqz	a5,80001334 <sbi_platform_get_features_str+0x78>
    800012f2:	8b89                	andi	a5,a5,2
    800012f4:	c3a1                	beqz	a5,80001334 <sbi_platform_get_features_str+0x78>
    800012f6:	00015697          	auipc	a3,0x15
    800012fa:	2b268693          	addi	a3,a3,690 # 800165a8 <__func__.0+0x10>
    800012fe:	00015617          	auipc	a2,0x15
    80001302:	2b260613          	addi	a2,a2,690 # 800165b0 <__func__.0+0x18>
    80001306:	85ce                	mv	a1,s3
    80001308:	8526                	mv	a0,s1
    8000130a:	370040ef          	jal	ra,8000567a <sbi_snprintf>
    8000130e:	02054363          	bltz	a0,80001334 <sbi_platform_get_features_str+0x78>
    80001312:	0009879b          	sext.w	a5,s3
    80001316:	01355463          	bge	a0,s3,8000131e <sbi_platform_get_features_str+0x62>
    8000131a:	0005079b          	sext.w	a5,a0
    8000131e:	cb99                	beqz	a5,80001334 <sbi_platform_get_features_str+0x78>
    80001320:	94be                	add	s1,s1,a5
    80001322:	fe048fa3          	sb	zero,-1(s1)
    80001326:	70a2                	ld	ra,40(sp)
    80001328:	7402                	ld	s0,32(sp)
    8000132a:	64e2                	ld	s1,24(sp)
    8000132c:	6942                	ld	s2,16(sp)
    8000132e:	69a2                	ld	s3,8(sp)
    80001330:	6145                	addi	sp,sp,48
    80001332:	8082                	ret
    80001334:	864e                	mv	a2,s3
    80001336:	8526                	mv	a0,s1
    80001338:	00015597          	auipc	a1,0x15
    8000133c:	28058593          	addi	a1,a1,640 # 800165b8 <__func__.0+0x20>
    80001340:	012010ef          	jal	ra,80002352 <sbi_strncpy>
    80001344:	70a2                	ld	ra,40(sp)
    80001346:	7402                	ld	s0,32(sp)
    80001348:	64e2                	ld	s1,24(sp)
    8000134a:	6942                	ld	s2,16(sp)
    8000134c:	69a2                	ld	s3,8(sp)
    8000134e:	6145                	addi	sp,sp,48
    80001350:	8082                	ret
    80001352:	8082                	ret

0000000080001354 <sbi_platform_hart_index>:
    80001354:	1141                	addi	sp,sp,-16
    80001356:	e422                	sd	s0,8(sp)
    80001358:	0800                	addi	s0,sp,16
    8000135a:	c11d                	beqz	a0,80001380 <sbi_platform_hart_index+0x2c>
    8000135c:	753c                	ld	a5,104(a0)
    8000135e:	872a                	mv	a4,a0
    80001360:	852e                	mv	a0,a1
    80001362:	cf81                	beqz	a5,8000137a <sbi_platform_hart_index+0x26>
    80001364:	4b34                	lw	a3,80(a4)
    80001366:	ce89                	beqz	a3,80001380 <sbi_platform_hart_index+0x2c>
    80001368:	4501                	li	a0,0
    8000136a:	a021                	j	80001372 <sbi_platform_hart_index+0x1e>
    8000136c:	2505                	addiw	a0,a0,1
    8000136e:	00d50963          	beq	a0,a3,80001380 <sbi_platform_hart_index+0x2c>
    80001372:	4398                	lw	a4,0(a5)
    80001374:	0791                	addi	a5,a5,4
    80001376:	feb71be3          	bne	a4,a1,8000136c <sbi_platform_hart_index+0x18>
    8000137a:	6422                	ld	s0,8(sp)
    8000137c:	0141                	addi	sp,sp,16
    8000137e:	8082                	ret
    80001380:	6422                	ld	s0,8(sp)
    80001382:	557d                	li	a0,-1
    80001384:	0141                	addi	sp,sp,16
    80001386:	8082                	ret

0000000080001388 <pmu_ctr_start_hw>:
    80001388:	715d                	addi	sp,sp,-80
    8000138a:	e0a2                	sd	s0,64(sp)
    8000138c:	e486                	sd	ra,72(sp)
    8000138e:	fc26                	sd	s1,56(sp)
    80001390:	f84a                	sd	s2,48(sp)
    80001392:	f44e                	sd	s3,40(sp)
    80001394:	f052                	sd	s4,32(sp)
    80001396:	ec56                	sd	s5,24(sp)
    80001398:	e85a                	sd	s6,16(sp)
    8000139a:	0880                	addi	s0,sp,80
    8000139c:	34002b73          	csrr	s6,mscratch
    800013a0:	0001c797          	auipc	a5,0x1c
    800013a4:	ea07a783          	lw	a5,-352(a5) # 8001d240 <num_hw_ctrs>
    800013a8:	0cf57163          	bgeu	a0,a5,8000146a <pmu_ctr_start_hw+0xe2>
    800013ac:	4905                	li	s2,1
    800013ae:	84aa                	mv	s1,a0
    800013b0:	0b250d63          	beq	a0,s2,8000146a <pmu_ctr_start_hw+0xe2>
    800013b4:	855a                	mv	a0,s6
    800013b6:	8a2e                	mv	s4,a1
    800013b8:	89b2                	mv	s3,a2
    800013ba:	022060ef          	jal	ra,800073dc <sbi_hart_priv_version>
    800013be:	04a95b63          	bge	s2,a0,80001414 <pmu_ctr_start_hw+0x8c>
    800013c2:	32002773          	csrr	a4,mucounteren
    800013c6:	43f4d793          	srai	a5,s1,0x3f
    800013ca:	01a7d79b          	srliw	a5,a5,0x1a
    800013ce:	9fa5                	addw	a5,a5,s1
    800013d0:	4067d79b          	sraiw	a5,a5,0x6
    800013d4:	078e                	slli	a5,a5,0x3
    800013d6:	fae43c23          	sd	a4,-72(s0)
    800013da:	fb840713          	addi	a4,s0,-72
    800013de:	973e                	add	a4,a4,a5
    800013e0:	631c                	ld	a5,0(a4)
    800013e2:	03f4f693          	andi	a3,s1,63
    800013e6:	00048a9b          	sext.w	s5,s1
    800013ea:	00d7d7b3          	srl	a5,a5,a3
    800013ee:	8b85                	andi	a5,a5,1
    800013f0:	cfbd                	beqz	a5,8000146e <pmu_ctr_start_hw+0xe6>
    800013f2:	631c                	ld	a5,0(a4)
    800013f4:	00d91933          	sll	s2,s2,a3
    800013f8:	fff94913          	not	s2,s2
    800013fc:	0127f7b3          	and	a5,a5,s2
    80001400:	4581                	li	a1,0
    80001402:	855a                	mv	a0,s6
    80001404:	e31c                	sd	a5,0(a4)
    80001406:	07e060ef          	jal	ra,80007484 <sbi_hart_has_extension>
    8000140a:	e915                	bnez	a0,8000143e <pmu_ctr_start_hw+0xb6>
    8000140c:	fb843783          	ld	a5,-72(s0)
    80001410:	32079073          	csrw	mucounteren,a5
    80001414:	00099d63          	bnez	s3,8000142e <pmu_ctr_start_hw+0xa6>
    80001418:	4501                	li	a0,0
    8000141a:	60a6                	ld	ra,72(sp)
    8000141c:	6406                	ld	s0,64(sp)
    8000141e:	74e2                	ld	s1,56(sp)
    80001420:	7942                	ld	s2,48(sp)
    80001422:	79a2                	ld	s3,40(sp)
    80001424:	7a02                	ld	s4,32(sp)
    80001426:	6ae2                	ld	s5,24(sp)
    80001428:	6b42                	ld	s6,16(sp)
    8000142a:	6161                	addi	sp,sp,80
    8000142c:	8082                	ret
    8000142e:	6505                	lui	a0,0x1
    80001430:	b005051b          	addiw	a0,a0,-1280
    80001434:	85d2                	mv	a1,s4
    80001436:	9d25                	addw	a0,a0,s1
    80001438:	60d020ef          	jal	ra,80004244 <csr_write_num>
    8000143c:	bff1                	j	80001418 <pmu_ctr_start_hw+0x90>
    8000143e:	ffd4879b          	addiw	a5,s1,-3
    80001442:	4771                	li	a4,28
    80001444:	fcf764e3          	bltu	a4,a5,8000140c <pmu_ctr_start_hw+0x84>
    80001448:	320a8a9b          	addiw	s5,s5,800
    8000144c:	8556                	mv	a0,s5
    8000144e:	229020ef          	jal	ra,80003e76 <csr_read_num>
    80001452:	344027f3          	csrr	a5,mip
    80001456:	6709                	lui	a4,0x2
    80001458:	8ff9                	and	a5,a5,a4
    8000145a:	fbcd                	bnez	a5,8000140c <pmu_ctr_start_hw+0x84>
    8000145c:	0506                	slli	a0,a0,0x1
    8000145e:	00155593          	srli	a1,a0,0x1
    80001462:	8556                	mv	a0,s5
    80001464:	5e1020ef          	jal	ra,80004244 <csr_write_num>
    80001468:	b755                	j	8000140c <pmu_ctr_start_hw+0x84>
    8000146a:	5575                	li	a0,-3
    8000146c:	b77d                	j	8000141a <pmu_ctr_start_hw+0x92>
    8000146e:	5565                	li	a0,-7
    80001470:	b76d                	j	8000141a <pmu_ctr_start_hw+0x92>

0000000080001472 <pmu_add_hw_event_map>:
    80001472:	715d                	addi	sp,sp,-80
    80001474:	e0a2                	sd	s0,64(sp)
    80001476:	fc26                	sd	s1,56(sp)
    80001478:	f84a                	sd	s2,48(sp)
    8000147a:	f052                	sd	s4,32(sp)
    8000147c:	ec56                	sd	s5,24(sp)
    8000147e:	e85a                	sd	s6,16(sp)
    80001480:	e45e                	sd	s7,8(sp)
    80001482:	e486                	sd	ra,72(sp)
    80001484:	f44e                	sd	s3,40(sp)
    80001486:	0880                	addi	s0,sp,80
    80001488:	0001cb97          	auipc	s7,0x1c
    8000148c:	db8b8b93          	addi	s7,s7,-584 # 8001d240 <num_hw_ctrs>
    80001490:	004ba983          	lw	s3,4(s7)
    80001494:	84aa                	mv	s1,a0
    80001496:	892e                	mv	s2,a1
    80001498:	8a32                	mv	s4,a2
    8000149a:	8ab6                	mv	s5,a3
    8000149c:	8b3a                	mv	s6,a4
    8000149e:	34002573          	csrr	a0,mscratch
    800014a2:	5c1050ef          	jal	ra,80007262 <sbi_hart_mhpm_count>
    800014a6:	4789                	li	a5,2
    800014a8:	2501                	sext.w	a0,a0
    800014aa:	0097f563          	bgeu	a5,s1,800014b4 <pmu_add_hw_event_map+0x42>
    800014ae:	007a7793          	andi	a5,s4,7
    800014b2:	ebf1                	bnez	a5,80001586 <pmu_add_hw_event_map+0x114>
    800014b4:	004ba683          	lw	a3,4(s7)
    800014b8:	0fe00793          	li	a5,254
    800014bc:	0cd7e763          	bltu	a5,a3,8000158a <pmu_add_hw_event_map+0x118>
    800014c0:	02099e13          	slli	t3,s3,0x20
    800014c4:	020e5e13          	srli	t3,t3,0x20
    800014c8:	0003a717          	auipc	a4,0x3a
    800014cc:	d8870713          	addi	a4,a4,-632 # 8003b250 <hw_event_map>
    800014d0:	005e1793          	slli	a5,t3,0x5
    800014d4:	97ba                	add	a5,a5,a4
    800014d6:	c3c4                	sw	s1,4(a5)
    800014d8:	0127a423          	sw	s2,8(a5)
    800014dc:	c2a5                	beqz	a3,8000153c <pmu_add_hw_event_map+0xca>
    800014de:	02069613          	slli	a2,a3,0x20
    800014e2:	0003a797          	auipc	a5,0x3a
    800014e6:	d7278793          	addi	a5,a5,-654 # 8003b254 <hw_event_map+0x4>
    800014ea:	01b65313          	srli	t1,a2,0x1b
    800014ee:	933e                	add	t1,t1,a5
    800014f0:	000205b7          	lui	a1,0x20
    800014f4:	08b48063          	beq	s1,a1,80001574 <pmu_add_hw_event_map+0x102>
    800014f8:	0047a803          	lw	a6,4(a5)
    800014fc:	0007a883          	lw	a7,0(a5)
    80001500:	00987463          	bgeu	a6,s1,80001508 <pmu_add_hw_event_map+0x96>
    80001504:	03286863          	bltu	a6,s2,80001534 <pmu_add_hw_event_map+0xc2>
    80001508:	0314e463          	bltu	s1,a7,80001530 <pmu_add_hw_event_map+0xbe>
    8000150c:	0e16                	slli	t3,t3,0x5
    8000150e:	9e3a                	add	t3,t3,a4
    80001510:	000e2223          	sw	zero,4(t3)
    80001514:	000e2423          	sw	zero,8(t3)
    80001518:	5575                	li	a0,-3
    8000151a:	60a6                	ld	ra,72(sp)
    8000151c:	6406                	ld	s0,64(sp)
    8000151e:	74e2                	ld	s1,56(sp)
    80001520:	7942                	ld	s2,48(sp)
    80001522:	79a2                	ld	s3,40(sp)
    80001524:	7a02                	ld	s4,32(sp)
    80001526:	6ae2                	ld	s5,24(sp)
    80001528:	6b42                	ld	s6,16(sp)
    8000152a:	6ba2                	ld	s7,8(sp)
    8000152c:	6161                	addi	sp,sp,80
    8000152e:	8082                	ret
    80001530:	fd197ee3          	bgeu	s2,a7,8000150c <pmu_add_hw_event_map+0x9a>
    80001534:	02078793          	addi	a5,a5,32
    80001538:	fc6790e3          	bne	a5,t1,800014f8 <pmu_add_hw_event_map+0x86>
    8000153c:	4675                	li	a2,29
    8000153e:	9e09                	subw	a2,a2,a0
    80001540:	57fd                	li	a5,-1
    80001542:	0e16                	slli	t3,t3,0x5
    80001544:	00c7d7bb          	srlw	a5,a5,a2
    80001548:	9772                	add	a4,a4,t3
    8000154a:	00fa7a33          	and	s4,s4,a5
    8000154e:	2685                	addiw	a3,a3,1
    80001550:	01673c23          	sd	s6,24(a4)
    80001554:	01472023          	sw	s4,0(a4)
    80001558:	01573823          	sd	s5,16(a4)
    8000155c:	00dba223          	sw	a3,4(s7)
    80001560:	4501                	li	a0,0
    80001562:	bf65                	j	8000151a <pmu_add_hw_event_map+0xa8>
    80001564:	0147b603          	ld	a2,20(a5)
    80001568:	02078793          	addi	a5,a5,32
    8000156c:	facb00e3          	beq	s6,a2,8000150c <pmu_add_hw_event_map+0x9a>
    80001570:	fc6786e3          	beq	a5,t1,8000153c <pmu_add_hw_event_map+0xca>
    80001574:	00c7b603          	ld	a2,12(a5)
    80001578:	feca86e3          	beq	s5,a2,80001564 <pmu_add_hw_event_map+0xf2>
    8000157c:	02078793          	addi	a5,a5,32
    80001580:	f6679ae3          	bne	a5,t1,800014f4 <pmu_add_hw_event_map+0x82>
    80001584:	bf65                	j	8000153c <pmu_add_hw_event_map+0xca>
    80001586:	5571                	li	a0,-4
    80001588:	bf49                	j	8000151a <pmu_add_hw_event_map+0xa8>
    8000158a:	10000593          	li	a1,256
    8000158e:	00015517          	auipc	a0,0x15
    80001592:	03250513          	addi	a0,a0,50 # 800165c0 <__func__.0+0x28>
    80001596:	122040ef          	jal	ra,800056b8 <sbi_printf>
    8000159a:	557d                	li	a0,-1
    8000159c:	bfbd                	j	8000151a <pmu_add_hw_event_map+0xa8>

000000008000159e <sbi_pmu_ctr_read>:
    8000159e:	f1402773          	csrr	a4,mhartid
    800015a2:	1702                	slli	a4,a4,0x20
    800015a4:	9301                	srli	a4,a4,0x20
    800015a6:	00171793          	slli	a5,a4,0x1
    800015aa:	97ba                	add	a5,a5,a4
    800015ac:	02051713          	slli	a4,a0,0x20
    800015b0:	9301                	srli	a4,a4,0x20
    800015b2:	0792                	slli	a5,a5,0x4
    800015b4:	97ba                	add	a5,a5,a4
    800015b6:	078a                	slli	a5,a5,0x2
    800015b8:	00034717          	auipc	a4,0x34
    800015bc:	c9870713          	addi	a4,a4,-872 # 80035250 <active_events>
    800015c0:	97ba                	add	a5,a5,a4
    800015c2:	0001c717          	auipc	a4,0x1c
    800015c6:	c8672703          	lw	a4,-890(a4) # 8001d248 <total_ctrs>
    800015ca:	439c                	lw	a5,0(a5)
    800015cc:	06e57663          	bgeu	a0,a4,80001638 <sbi_pmu_ctr_read+0x9a>
    800015d0:	577d                	li	a4,-1
    800015d2:	06e78363          	beq	a5,a4,80001638 <sbi_pmu_ctr_read+0x9a>
    800015d6:	0107d71b          	srliw	a4,a5,0x10
    800015da:	8b3d                	andi	a4,a4,15
    800015dc:	46bd                	li	a3,15
    800015de:	02d71b63          	bne	a4,a3,80001614 <sbi_pmu_ctr_read+0x76>
    800015e2:	f1402673          	csrr	a2,mhartid
    800015e6:	17c2                	slli	a5,a5,0x30
    800015e8:	1602                	slli	a2,a2,0x20
    800015ea:	93c1                	srli	a5,a5,0x30
    800015ec:	9201                	srli	a2,a2,0x20
    800015ee:	00179713          	slli	a4,a5,0x1
    800015f2:	00161693          	slli	a3,a2,0x1
    800015f6:	97ba                	add	a5,a5,a4
    800015f8:	00c68733          	add	a4,a3,a2
    800015fc:	0722                	slli	a4,a4,0x8
    800015fe:	078e                	slli	a5,a5,0x3
    80001600:	97ba                	add	a5,a5,a4
    80001602:	0001c717          	auipc	a4,0x1c
    80001606:	c4e70713          	addi	a4,a4,-946 # 8001d250 <fw_event_map>
    8000160a:	97ba                	add	a5,a5,a4
    8000160c:	679c                	ld	a5,8(a5)
    8000160e:	e19c                	sd	a5,0(a1)
    80001610:	4501                	li	a0,0
    80001612:	8082                	ret
    80001614:	4785                	li	a5,1
    80001616:	fef50de3          	beq	a0,a5,80001610 <sbi_pmu_ctr_read+0x72>
    8000161a:	1141                	addi	sp,sp,-16
    8000161c:	6785                	lui	a5,0x1
    8000161e:	e022                	sd	s0,0(sp)
    80001620:	e406                	sd	ra,8(sp)
    80001622:	0800                	addi	s0,sp,16
    80001624:	b007879b          	addiw	a5,a5,-1280
    80001628:	9d3d                	addw	a0,a0,a5
    8000162a:	04d020ef          	jal	ra,80003e76 <csr_read_num>
    8000162e:	60a2                	ld	ra,8(sp)
    80001630:	6402                	ld	s0,0(sp)
    80001632:	4501                	li	a0,0
    80001634:	0141                	addi	sp,sp,16
    80001636:	8082                	ret
    80001638:	5575                	li	a0,-3
    8000163a:	8082                	ret

000000008000163c <sbi_pmu_add_hw_event_counter_map>:
    8000163c:	02a5e463          	bltu	a1,a0,80001664 <sbi_pmu_add_hw_event_counter_map+0x28>
    80001640:	000206b7          	lui	a3,0x20
    80001644:	02d50063          	beq	a0,a3,80001664 <sbi_pmu_add_hw_event_counter_map+0x28>
    80001648:	00d58e63          	beq	a1,a3,80001664 <sbi_pmu_add_hw_event_counter_map+0x28>
    8000164c:	1141                	addi	sp,sp,-16
    8000164e:	e022                	sd	s0,0(sp)
    80001650:	e406                	sd	ra,8(sp)
    80001652:	0800                	addi	s0,sp,16
    80001654:	4701                	li	a4,0
    80001656:	4681                	li	a3,0
    80001658:	e1bff0ef          	jal	ra,80001472 <pmu_add_hw_event_map>
    8000165c:	60a2                	ld	ra,8(sp)
    8000165e:	6402                	ld	s0,0(sp)
    80001660:	0141                	addi	sp,sp,16
    80001662:	8082                	ret
    80001664:	5575                	li	a0,-3
    80001666:	8082                	ret

0000000080001668 <sbi_pmu_add_raw_event_counter_map>:
    80001668:	1141                	addi	sp,sp,-16
    8000166a:	e022                	sd	s0,0(sp)
    8000166c:	e406                	sd	ra,8(sp)
    8000166e:	0800                	addi	s0,sp,16
    80001670:	86aa                	mv	a3,a0
    80001672:	872e                	mv	a4,a1
    80001674:	00020537          	lui	a0,0x20
    80001678:	000205b7          	lui	a1,0x20
    8000167c:	df7ff0ef          	jal	ra,80001472 <pmu_add_hw_event_map>
    80001680:	60a2                	ld	ra,8(sp)
    80001682:	6402                	ld	s0,0(sp)
    80001684:	0141                	addi	sp,sp,16
    80001686:	8082                	ret

0000000080001688 <sbi_pmu_ctr_start>:
    80001688:	7175                	addi	sp,sp,-144
    8000168a:	e122                	sd	s0,128(sp)
    8000168c:	fca6                	sd	s1,120(sp)
    8000168e:	f4ce                	sd	s3,104(sp)
    80001690:	e506                	sd	ra,136(sp)
    80001692:	f8ca                	sd	s2,112(sp)
    80001694:	f0d2                	sd	s4,96(sp)
    80001696:	ecd6                	sd	s5,88(sp)
    80001698:	e8da                	sd	s6,80(sp)
    8000169a:	e4de                	sd	s7,72(sp)
    8000169c:	e0e2                	sd	s8,64(sp)
    8000169e:	fc66                	sd	s9,56(sp)
    800016a0:	f86a                	sd	s10,48(sp)
    800016a2:	f46e                	sd	s11,40(sp)
    800016a4:	0900                	addi	s0,sp,144
    800016a6:	00a595b3          	sll	a1,a1,a0
    800016aa:	577d                	li	a4,-1
    800016ac:	f8b43423          	sd	a1,-120(s0)
    800016b0:	9301                	srli	a4,a4,0x20
    800016b2:	84b2                	mv	s1,a2
    800016b4:	89b6                	mv	s3,a3
    800016b6:	03f00793          	li	a5,63
    800016ba:	00b76463          	bltu	a4,a1,800016c2 <sbi_pmu_ctr_start+0x3a>
    800016be:	1582                	slli	a1,a1,0x20
    800016c0:	47fd                	li	a5,31
    800016c2:	577d                	li	a4,-1
    800016c4:	8341                	srli	a4,a4,0x10
    800016c6:	00b76463          	bltu	a4,a1,800016ce <sbi_pmu_ctr_start+0x46>
    800016ca:	37c1                	addiw	a5,a5,-16
    800016cc:	05c2                	slli	a1,a1,0x10
    800016ce:	577d                	li	a4,-1
    800016d0:	8321                	srli	a4,a4,0x8
    800016d2:	00b76463          	bltu	a4,a1,800016da <sbi_pmu_ctr_start+0x52>
    800016d6:	37e1                	addiw	a5,a5,-8
    800016d8:	05a2                	slli	a1,a1,0x8
    800016da:	577d                	li	a4,-1
    800016dc:	8311                	srli	a4,a4,0x4
    800016de:	00b76463          	bltu	a4,a1,800016e6 <sbi_pmu_ctr_start+0x5e>
    800016e2:	37f1                	addiw	a5,a5,-4
    800016e4:	0592                	slli	a1,a1,0x4
    800016e6:	577d                	li	a4,-1
    800016e8:	8309                	srli	a4,a4,0x2
    800016ea:	00b76463          	bltu	a4,a1,800016f2 <sbi_pmu_ctr_start+0x6a>
    800016ee:	37f9                	addiw	a5,a5,-2
    800016f0:	058a                	slli	a1,a1,0x2
    800016f2:	0005c363          	bltz	a1,800016f8 <sbi_pmu_ctr_start+0x70>
    800016f6:	37fd                	addiw	a5,a5,-1
    800016f8:	0001cd17          	auipc	s10,0x1c
    800016fc:	b48d0d13          	addi	s10,s10,-1208 # 8001d240 <num_hw_ctrs>
    80001700:	008d6583          	lwu	a1,8(s10)
    80001704:	5975                	li	s2,-3
    80001706:	0eb7f963          	bgeu	a5,a1,800017f8 <sbi_pmu_ctr_start+0x170>
    8000170a:	f8840a13          	addi	s4,s0,-120
    8000170e:	0014f793          	andi	a5,s1,1
    80001712:	862a                	mv	a2,a0
    80001714:	8552                	mv	a0,s4
    80001716:	f6f43c23          	sd	a5,-136(s0)
    8000171a:	84be                	mv	s1,a5
    8000171c:	562030ef          	jal	ra,80004c7e <find_next_bit>
    80001720:	008d6783          	lwu	a5,8(s10)
    80001724:	8daa                	mv	s11,a0
    80001726:	0cf57963          	bgeu	a0,a5,800017f8 <sbi_pmu_ctr_start+0x170>
    8000172a:	6cc1                	lui	s9,0x10
    8000172c:	00034a97          	auipc	s5,0x34
    80001730:	b24a8a93          	addi	s5,s5,-1244 # 80035250 <active_events>
    80001734:	5b7d                	li	s6,-1
    80001736:	4bbd                	li	s7,15
    80001738:	1cfd                	addi	s9,s9,-1
    8000173a:	0001cc17          	auipc	s8,0x1c
    8000173e:	b16c0c13          	addi	s8,s8,-1258 # 8001d250 <fw_event_map>
    80001742:	a0bd                	j	800017b0 <sbi_pmu_ctr_start+0x128>
    80001744:	0197f7b3          	and	a5,a5,s9
    80001748:	f14028f3          	csrr	a7,mhartid
    8000174c:	2881                	sext.w	a7,a7
    8000174e:	02079513          	slli	a0,a5,0x20
    80001752:	02089593          	slli	a1,a7,0x20
    80001756:	9101                	srli	a0,a0,0x20
    80001758:	9181                	srli	a1,a1,0x20
    8000175a:	00151693          	slli	a3,a0,0x1
    8000175e:	00159613          	slli	a2,a1,0x1
    80001762:	96aa                	add	a3,a3,a0
    80001764:	962e                	add	a2,a2,a1
    80001766:	f7843703          	ld	a4,-136(s0)
    8000176a:	068e                	slli	a3,a3,0x3
    8000176c:	0622                	slli	a2,a2,0x8
    8000176e:	96b2                	add	a3,a3,a2
    80001770:	96e2                	add	a3,a3,s8
    80001772:	c319                	beqz	a4,80001778 <sbi_pmu_ctr_start+0xf0>
    80001774:	0136b423          	sd	s3,8(a3) # 20008 <_fw_start-0x7ffdfff8>
    80001778:	00151793          	slli	a5,a0,0x1
    8000177c:	00159693          	slli	a3,a1,0x1
    80001780:	97aa                	add	a5,a5,a0
    80001782:	96ae                	add	a3,a3,a1
    80001784:	078e                	slli	a5,a5,0x3
    80001786:	06a2                	slli	a3,a3,0x8
    80001788:	97b6                	add	a5,a5,a3
    8000178a:	008d2883          	lw	a7,8(s10)
    8000178e:	97e2                	add	a5,a5,s8
    80001790:	4705                	li	a4,1
    80001792:	cb98                	sw	a4,16(a5)
    80001794:	4901                	li	s2,0
    80001796:	02089593          	slli	a1,a7,0x20
    8000179a:	001d8613          	addi	a2,s11,1
    8000179e:	9181                	srli	a1,a1,0x20
    800017a0:	8552                	mv	a0,s4
    800017a2:	4dc030ef          	jal	ra,80004c7e <find_next_bit>
    800017a6:	008d6783          	lwu	a5,8(s10)
    800017aa:	8daa                	mv	s11,a0
    800017ac:	04f57663          	bgeu	a0,a5,800017f8 <sbi_pmu_ctr_start+0x170>
    800017b0:	000d851b          	sext.w	a0,s11
    800017b4:	f14026f3          	csrr	a3,mhartid
    800017b8:	1682                	slli	a3,a3,0x20
    800017ba:	9281                	srli	a3,a3,0x20
    800017bc:	00169793          	slli	a5,a3,0x1
    800017c0:	97b6                	add	a5,a5,a3
    800017c2:	02051693          	slli	a3,a0,0x20
    800017c6:	9281                	srli	a3,a3,0x20
    800017c8:	0792                	slli	a5,a5,0x4
    800017ca:	97b6                	add	a5,a5,a3
    800017cc:	008d2883          	lw	a7,8(s10)
    800017d0:	078a                	slli	a5,a5,0x2
    800017d2:	97d6                	add	a5,a5,s5
    800017d4:	439c                	lw	a5,0(a5)
    800017d6:	8626                	mv	a2,s1
    800017d8:	85ce                	mv	a1,s3
    800017da:	fb157ee3          	bgeu	a0,a7,80001796 <sbi_pmu_ctr_start+0x10e>
    800017de:	0107d69b          	srliw	a3,a5,0x10
    800017e2:	8abd                	andi	a3,a3,15
    800017e4:	fb6789e3          	beq	a5,s6,80001796 <sbi_pmu_ctr_start+0x10e>
    800017e8:	f5768ee3          	beq	a3,s7,80001744 <sbi_pmu_ctr_start+0xbc>
    800017ec:	b9dff0ef          	jal	ra,80001388 <pmu_ctr_start_hw>
    800017f0:	008d2883          	lw	a7,8(s10)
    800017f4:	892a                	mv	s2,a0
    800017f6:	b745                	j	80001796 <sbi_pmu_ctr_start+0x10e>
    800017f8:	60aa                	ld	ra,136(sp)
    800017fa:	640a                	ld	s0,128(sp)
    800017fc:	74e6                	ld	s1,120(sp)
    800017fe:	79a6                	ld	s3,104(sp)
    80001800:	7a06                	ld	s4,96(sp)
    80001802:	6ae6                	ld	s5,88(sp)
    80001804:	6b46                	ld	s6,80(sp)
    80001806:	6ba6                	ld	s7,72(sp)
    80001808:	6c06                	ld	s8,64(sp)
    8000180a:	7ce2                	ld	s9,56(sp)
    8000180c:	7d42                	ld	s10,48(sp)
    8000180e:	7da2                	ld	s11,40(sp)
    80001810:	854a                	mv	a0,s2
    80001812:	7946                	ld	s2,112(sp)
    80001814:	6149                	addi	sp,sp,144
    80001816:	8082                	ret

0000000080001818 <sbi_pmu_ctr_stop>:
    80001818:	7175                	addi	sp,sp,-144
    8000181a:	e122                	sd	s0,128(sp)
    8000181c:	f4ce                	sd	s3,104(sp)
    8000181e:	e506                	sd	ra,136(sp)
    80001820:	fca6                	sd	s1,120(sp)
    80001822:	f8ca                	sd	s2,112(sp)
    80001824:	f0d2                	sd	s4,96(sp)
    80001826:	ecd6                	sd	s5,88(sp)
    80001828:	e8da                	sd	s6,80(sp)
    8000182a:	e4de                	sd	s7,72(sp)
    8000182c:	e0e2                	sd	s8,64(sp)
    8000182e:	fc66                	sd	s9,56(sp)
    80001830:	f86a                	sd	s10,48(sp)
    80001832:	f46e                	sd	s11,40(sp)
    80001834:	0900                	addi	s0,sp,144
    80001836:	89b2                	mv	s3,a2
    80001838:	862a                	mv	a2,a0
    8000183a:	f1402c73          	csrr	s8,mhartid
    8000183e:	577d                	li	a4,-1
    80001840:	000c079b          	sext.w	a5,s8
    80001844:	00a595b3          	sll	a1,a1,a0
    80001848:	f6f43c23          	sd	a5,-136(s0)
    8000184c:	f8b43023          	sd	a1,-128(s0)
    80001850:	9301                	srli	a4,a4,0x20
    80001852:	03f00793          	li	a5,63
    80001856:	00b76463          	bltu	a4,a1,8000185e <sbi_pmu_ctr_stop+0x46>
    8000185a:	1582                	slli	a1,a1,0x20
    8000185c:	47fd                	li	a5,31
    8000185e:	577d                	li	a4,-1
    80001860:	8341                	srli	a4,a4,0x10
    80001862:	00b76463          	bltu	a4,a1,8000186a <sbi_pmu_ctr_stop+0x52>
    80001866:	37c1                	addiw	a5,a5,-16
    80001868:	05c2                	slli	a1,a1,0x10
    8000186a:	577d                	li	a4,-1
    8000186c:	8321                	srli	a4,a4,0x8
    8000186e:	00b76463          	bltu	a4,a1,80001876 <sbi_pmu_ctr_stop+0x5e>
    80001872:	37e1                	addiw	a5,a5,-8
    80001874:	05a2                	slli	a1,a1,0x8
    80001876:	577d                	li	a4,-1
    80001878:	8311                	srli	a4,a4,0x4
    8000187a:	00b76463          	bltu	a4,a1,80001882 <sbi_pmu_ctr_stop+0x6a>
    8000187e:	37f1                	addiw	a5,a5,-4
    80001880:	0592                	slli	a1,a1,0x4
    80001882:	577d                	li	a4,-1
    80001884:	8309                	srli	a4,a4,0x2
    80001886:	00b76463          	bltu	a4,a1,8000188e <sbi_pmu_ctr_stop+0x76>
    8000188a:	37f9                	addiw	a5,a5,-2
    8000188c:	058a                	slli	a1,a1,0x2
    8000188e:	0005c363          	bltz	a1,80001894 <sbi_pmu_ctr_stop+0x7c>
    80001892:	37fd                	addiw	a5,a5,-1
    80001894:	0001c497          	auipc	s1,0x1c
    80001898:	9ac48493          	addi	s1,s1,-1620 # 8001d240 <num_hw_ctrs>
    8000189c:	0084e583          	lwu	a1,8(s1)
    800018a0:	16b7f263          	bgeu	a5,a1,80001a04 <sbi_pmu_ctr_stop+0x1ec>
    800018a4:	f8040a13          	addi	s4,s0,-128
    800018a8:	8552                	mv	a0,s4
    800018aa:	3d4030ef          	jal	ra,80004c7e <find_next_bit>
    800018ae:	0084e783          	lwu	a5,8(s1)
    800018b2:	8d2a                	mv	s10,a0
    800018b4:	14f57863          	bgeu	a0,a5,80001a04 <sbi_pmu_ctr_stop+0x1ec>
    800018b8:	f7846783          	lwu	a5,-136(s0)
    800018bc:	6bc1                	lui	s7,0x10
    800018be:	5af5                	li	s5,-3
    800018c0:	00179b13          	slli	s6,a5,0x1
    800018c4:	9b3e                	add	s6,s6,a5
    800018c6:	00034917          	auipc	s2,0x34
    800018ca:	98a90913          	addi	s2,s2,-1654 # 80035250 <active_events>
    800018ce:	0019f993          	andi	s3,s3,1
    800018d2:	0b12                	slli	s6,s6,0x4
    800018d4:	f8840c93          	addi	s9,s0,-120
    800018d8:	1bfd                	addi	s7,s7,-1
    800018da:	000d0d9b          	sext.w	s11,s10
    800018de:	f1402773          	csrr	a4,mhartid
    800018e2:	1702                	slli	a4,a4,0x20
    800018e4:	9301                	srli	a4,a4,0x20
    800018e6:	00171793          	slli	a5,a4,0x1
    800018ea:	97ba                	add	a5,a5,a4
    800018ec:	020d9713          	slli	a4,s11,0x20
    800018f0:	9301                	srli	a4,a4,0x20
    800018f2:	0792                	slli	a5,a5,0x4
    800018f4:	97ba                	add	a5,a5,a4
    800018f6:	448c                	lw	a1,8(s1)
    800018f8:	078a                	slli	a5,a5,0x2
    800018fa:	97ca                	add	a5,a5,s2
    800018fc:	439c                	lw	a5,0(a5)
    800018fe:	04bdf863          	bgeu	s11,a1,8000194e <sbi_pmu_ctr_stop+0x136>
    80001902:	5c7d                	li	s8,-1
    80001904:	05878563          	beq	a5,s8,8000194e <sbi_pmu_ctr_stop+0x136>
    80001908:	0107d71b          	srliw	a4,a5,0x10
    8000190c:	8b3d                	andi	a4,a4,15
    8000190e:	463d                	li	a2,15
    80001910:	08c71c63          	bne	a4,a2,800019a8 <sbi_pmu_ctr_stop+0x190>
    80001914:	f1402673          	csrr	a2,mhartid
    80001918:	0177f7b3          	and	a5,a5,s7
    8000191c:	1782                	slli	a5,a5,0x20
    8000191e:	1602                	slli	a2,a2,0x20
    80001920:	9381                	srli	a5,a5,0x20
    80001922:	9201                	srli	a2,a2,0x20
    80001924:	00179713          	slli	a4,a5,0x1
    80001928:	00161693          	slli	a3,a2,0x1
    8000192c:	97ba                	add	a5,a5,a4
    8000192e:	00c68733          	add	a4,a3,a2
    80001932:	0722                	slli	a4,a4,0x8
    80001934:	078e                	slli	a5,a5,0x3
    80001936:	97ba                	add	a5,a5,a4
    80001938:	0001c717          	auipc	a4,0x1c
    8000193c:	91870713          	addi	a4,a4,-1768 # 8001d250 <fw_event_map>
    80001940:	97ba                	add	a5,a5,a4
    80001942:	0007a823          	sw	zero,16(a5) # 1010 <_fw_start-0x7fffeff0>
    80001946:	4a81                	li	s5,0
    80001948:	02099f63          	bnez	s3,80001986 <sbi_pmu_ctr_stop+0x16e>
    8000194c:	448c                	lw	a1,8(s1)
    8000194e:	1582                	slli	a1,a1,0x20
    80001950:	001d0613          	addi	a2,s10,1
    80001954:	9181                	srli	a1,a1,0x20
    80001956:	8552                	mv	a0,s4
    80001958:	326030ef          	jal	ra,80004c7e <find_next_bit>
    8000195c:	0084e783          	lwu	a5,8(s1)
    80001960:	8d2a                	mv	s10,a0
    80001962:	f6f56ce3          	bltu	a0,a5,800018da <sbi_pmu_ctr_stop+0xc2>
    80001966:	60aa                	ld	ra,136(sp)
    80001968:	640a                	ld	s0,128(sp)
    8000196a:	74e6                	ld	s1,120(sp)
    8000196c:	7946                	ld	s2,112(sp)
    8000196e:	79a6                	ld	s3,104(sp)
    80001970:	7a06                	ld	s4,96(sp)
    80001972:	6b46                	ld	s6,80(sp)
    80001974:	6ba6                	ld	s7,72(sp)
    80001976:	6c06                	ld	s8,64(sp)
    80001978:	7ce2                	ld	s9,56(sp)
    8000197a:	7d42                	ld	s10,48(sp)
    8000197c:	7da2                	ld	s11,40(sp)
    8000197e:	8556                	mv	a0,s5
    80001980:	6ae6                	ld	s5,88(sp)
    80001982:	6149                	addi	sp,sp,144
    80001984:	8082                	ret
    80001986:	01ab07b3          	add	a5,s6,s10
    8000198a:	078a                	slli	a5,a5,0x2
    8000198c:	97ca                	add	a5,a5,s2
    8000198e:	577d                	li	a4,-1
    80001990:	c398                	sw	a4,0(a5)
    80001992:	ffdd879b          	addiw	a5,s11,-3
    80001996:	4771                	li	a4,28
    80001998:	faf76ae3          	bltu	a4,a5,8000194c <sbi_pmu_ctr_stop+0x134>
    8000199c:	4581                	li	a1,0
    8000199e:	320d851b          	addiw	a0,s11,800
    800019a2:	0a3020ef          	jal	ra,80004244 <csr_write_num>
    800019a6:	b75d                	j	8000194c <sbi_pmu_ctr_stop+0x134>
    800019a8:	34002573          	csrr	a0,mscratch
    800019ac:	231050ef          	jal	ra,800073dc <sbi_hart_priv_version>
    800019b0:	4705                	li	a4,1
    800019b2:	04a75563          	bge	a4,a0,800019fc <sbi_pmu_ctr_stop+0x1e4>
    800019b6:	32002673          	csrr	a2,mucounteren
    800019ba:	409c                	lw	a5,0(s1)
    800019bc:	f8c43423          	sd	a2,-120(s0)
    800019c0:	04fdf863          	bgeu	s11,a5,80001a10 <sbi_pmu_ctr_stop+0x1f8>
    800019c4:	04ed0a63          	beq	s10,a4,80001a18 <sbi_pmu_ctr_stop+0x200>
    800019c8:	41fd579b          	sraiw	a5,s10,0x1f
    800019cc:	01a7d79b          	srliw	a5,a5,0x1a
    800019d0:	01a787bb          	addw	a5,a5,s10
    800019d4:	4067d79b          	sraiw	a5,a5,0x6
    800019d8:	078e                	slli	a5,a5,0x3
    800019da:	97e6                	add	a5,a5,s9
    800019dc:	6394                	ld	a3,0(a5)
    800019de:	03fdf613          	andi	a2,s11,63
    800019e2:	00c6d6b3          	srl	a3,a3,a2
    800019e6:	8a85                	andi	a3,a3,1
    800019e8:	e285                	bnez	a3,80001a08 <sbi_pmu_ctr_stop+0x1f0>
    800019ea:	6394                	ld	a3,0(a5)
    800019ec:	00c71733          	sll	a4,a4,a2
    800019f0:	8f55                	or	a4,a4,a3
    800019f2:	e398                	sd	a4,0(a5)
    800019f4:	f8843783          	ld	a5,-120(s0)
    800019f8:	32079073          	csrw	mucounteren,a5
    800019fc:	4a81                	li	s5,0
    800019fe:	f40987e3          	beqz	s3,8000194c <sbi_pmu_ctr_stop+0x134>
    80001a02:	b751                	j	80001986 <sbi_pmu_ctr_stop+0x16e>
    80001a04:	5af5                	li	s5,-3
    80001a06:	b785                	j	80001966 <sbi_pmu_ctr_stop+0x14e>
    80001a08:	5ae1                	li	s5,-8
    80001a0a:	f40981e3          	beqz	s3,8000194c <sbi_pmu_ctr_stop+0x134>
    80001a0e:	bfa5                	j	80001986 <sbi_pmu_ctr_stop+0x16e>
    80001a10:	5af5                	li	s5,-3
    80001a12:	f2098de3          	beqz	s3,8000194c <sbi_pmu_ctr_stop+0x134>
    80001a16:	bf85                	j	80001986 <sbi_pmu_ctr_stop+0x16e>
    80001a18:	00099563          	bnez	s3,80001a22 <sbi_pmu_ctr_stop+0x20a>
    80001a1c:	448c                	lw	a1,8(s1)
    80001a1e:	5af5                	li	s5,-3
    80001a20:	b73d                	j	8000194e <sbi_pmu_ctr_stop+0x136>
    80001a22:	f7846703          	lwu	a4,-136(s0)
    80001a26:	448c                	lw	a1,8(s1)
    80001a28:	5af5                	li	s5,-3
    80001a2a:	00171793          	slli	a5,a4,0x1
    80001a2e:	97ba                	add	a5,a5,a4
    80001a30:	079a                	slli	a5,a5,0x6
    80001a32:	97ca                	add	a5,a5,s2
    80001a34:	0187a223          	sw	s8,4(a5)
    80001a38:	bf19                	j	8000194e <sbi_pmu_ctr_stop+0x136>

0000000080001a3a <sbi_pmu_ctr_cfg_match>:
    80001a3a:	7131                	addi	sp,sp,-192
    80001a3c:	f922                	sd	s0,176(sp)
    80001a3e:	f526                	sd	s1,168(sp)
    80001a40:	ed4e                	sd	s3,152(sp)
    80001a42:	fcde                	sd	s7,120(sp)
    80001a44:	fd06                	sd	ra,184(sp)
    80001a46:	f14a                	sd	s2,160(sp)
    80001a48:	e952                	sd	s4,144(sp)
    80001a4a:	e556                	sd	s5,136(sp)
    80001a4c:	e15a                	sd	s6,128(sp)
    80001a4e:	f8e2                	sd	s8,112(sp)
    80001a50:	f4e6                	sd	s9,104(sp)
    80001a52:	f0ea                	sd	s10,96(sp)
    80001a54:	ecee                	sd	s11,88(sp)
    80001a56:	0180                	addi	s0,sp,192
    80001a58:	8baa                	mv	s7,a0
    80001a5a:	f4b43423          	sd	a1,-184(s0)
    80001a5e:	89b2                	mv	s3,a2
    80001a60:	84b6                	mv	s1,a3
    80001a62:	f4e43c23          	sd	a4,-168(s0)
    80001a66:	f1402873          	csrr	a6,mhartid
    80001a6a:	0106da13          	srli	s4,a3,0x10
    80001a6e:	0008079b          	sext.w	a5,a6
    80001a72:	577d                	li	a4,-1
    80001a74:	f6f43423          	sd	a5,-152(s0)
    80001a78:	00fa7793          	andi	a5,s4,15
    80001a7c:	00a59533          	sll	a0,a1,a0
    80001a80:	9301                	srli	a4,a4,0x20
    80001a82:	f6f43823          	sd	a5,-144(s0)
    80001a86:	000b869b          	sext.w	a3,s7
    80001a8a:	0aa76c63          	bltu	a4,a0,80001b42 <sbi_pmu_ctr_cfg_match+0x108>
    80001a8e:	02051713          	slli	a4,a0,0x20
    80001a92:	467d                	li	a2,31
    80001a94:	55fd                	li	a1,-1
    80001a96:	81c1                	srli	a1,a1,0x10
    80001a98:	00e5e463          	bltu	a1,a4,80001aa0 <sbi_pmu_ctr_cfg_match+0x66>
    80001a9c:	3641                	addiw	a2,a2,-16
    80001a9e:	0742                	slli	a4,a4,0x10
    80001aa0:	55fd                	li	a1,-1
    80001aa2:	81a1                	srli	a1,a1,0x8
    80001aa4:	00e5e463          	bltu	a1,a4,80001aac <sbi_pmu_ctr_cfg_match+0x72>
    80001aa8:	3661                	addiw	a2,a2,-8
    80001aaa:	0722                	slli	a4,a4,0x8
    80001aac:	55fd                	li	a1,-1
    80001aae:	8191                	srli	a1,a1,0x4
    80001ab0:	00e5e463          	bltu	a1,a4,80001ab8 <sbi_pmu_ctr_cfg_match+0x7e>
    80001ab4:	3671                	addiw	a2,a2,-4
    80001ab6:	0712                	slli	a4,a4,0x4
    80001ab8:	55fd                	li	a1,-1
    80001aba:	8189                	srli	a1,a1,0x2
    80001abc:	00e5e463          	bltu	a1,a4,80001ac4 <sbi_pmu_ctr_cfg_match+0x8a>
    80001ac0:	3679                	addiw	a2,a2,-2
    80001ac2:	070a                	slli	a4,a4,0x2
    80001ac4:	00074363          	bltz	a4,80001aca <sbi_pmu_ctr_cfg_match+0x90>
    80001ac8:	367d                	addiw	a2,a2,-1
    80001aca:	0001bc17          	auipc	s8,0x1b
    80001ace:	776c0c13          	addi	s8,s8,1910 # 8001d240 <num_hw_ctrs>
    80001ad2:	008c2583          	lw	a1,8(s8)
    80001ad6:	02059713          	slli	a4,a1,0x20
    80001ada:	9301                	srli	a4,a4,0x20
    80001adc:	38e67c63          	bgeu	a2,a4,80001e74 <sbi_pmu_ctr_cfg_match+0x43a>
    80001ae0:	0019f713          	andi	a4,s3,1
    80001ae4:	c33d                	beqz	a4,80001b4a <sbi_pmu_ctr_cfg_match+0x110>
    80001ae6:	f6846603          	lwu	a2,-152(s0)
    80001aea:	00033797          	auipc	a5,0x33
    80001aee:	76678793          	addi	a5,a5,1894 # 80035250 <active_events>
    80001af2:	00161713          	slli	a4,a2,0x1
    80001af6:	9732                	add	a4,a4,a2
    80001af8:	0712                	slli	a4,a4,0x4
    80001afa:	975e                	add	a4,a4,s7
    80001afc:	070a                	slli	a4,a4,0x2
    80001afe:	97ba                	add	a5,a5,a4
    80001b00:	4398                	lw	a4,0(a5)
    80001b02:	57fd                	li	a5,-1
    80001b04:	36f70863          	beq	a4,a5,80001e74 <sbi_pmu_ctr_cfg_match+0x43a>
    80001b08:	f7043783          	ld	a5,-144(s0)
    80001b0c:	8a36                	mv	s4,a3
    80001b0e:	24079c63          	bnez	a5,80001d66 <sbi_pmu_ctr_cfg_match+0x32c>
    80001b12:	0029f793          	andi	a5,s3,2
    80001b16:	24079f63          	bnez	a5,80001d74 <sbi_pmu_ctr_cfg_match+0x33a>
    80001b1a:	0049f993          	andi	s3,s3,4
    80001b1e:	26099763          	bnez	s3,80001d8c <sbi_pmu_ctr_cfg_match+0x352>
    80001b22:	70ea                	ld	ra,184(sp)
    80001b24:	744a                	ld	s0,176(sp)
    80001b26:	74aa                	ld	s1,168(sp)
    80001b28:	790a                	ld	s2,160(sp)
    80001b2a:	69ea                	ld	s3,152(sp)
    80001b2c:	6aaa                	ld	s5,136(sp)
    80001b2e:	6b0a                	ld	s6,128(sp)
    80001b30:	7be6                	ld	s7,120(sp)
    80001b32:	7c46                	ld	s8,112(sp)
    80001b34:	7ca6                	ld	s9,104(sp)
    80001b36:	7d06                	ld	s10,96(sp)
    80001b38:	6de6                	ld	s11,88(sp)
    80001b3a:	8552                	mv	a0,s4
    80001b3c:	6a4a                	ld	s4,144(sp)
    80001b3e:	6129                	addi	sp,sp,192
    80001b40:	8082                	ret
    80001b42:	872a                	mv	a4,a0
    80001b44:	03f00613          	li	a2,63
    80001b48:	b7b1                	j	80001a94 <sbi_pmu_ctr_cfg_match+0x5a>
    80001b4a:	f7043783          	ld	a5,-144(s0)
    80001b4e:	473d                	li	a4,15
    80001b50:	0ae79163          	bne	a5,a4,80001bf2 <sbi_pmu_ctr_cfg_match+0x1b8>
    80001b54:	000c2703          	lw	a4,0(s8)
    80001b58:	02071613          	slli	a2,a4,0x20
    80001b5c:	9201                	srli	a2,a2,0x20
    80001b5e:	00070a1b          	sext.w	s4,a4
    80001b62:	1ccbfb63          	bgeu	s7,a2,80001d38 <sbi_pmu_ctr_cfg_match+0x2fe>
    80001b66:	2cb77063          	bgeu	a4,a1,80001e26 <sbi_pmu_ctr_cfg_match+0x3ec>
    80001b6a:	1802                	slli	a6,a6,0x20
    80001b6c:	02085813          	srli	a6,a6,0x20
    80001b70:	00181793          	slli	a5,a6,0x1
    80001b74:	97c2                	add	a5,a5,a6
    80001b76:	0792                	slli	a5,a5,0x4
    80001b78:	97d2                	add	a5,a5,s4
    80001b7a:	078a                	slli	a5,a5,0x2
    80001b7c:	00033817          	auipc	a6,0x33
    80001b80:	6d480813          	addi	a6,a6,1748 # 80035250 <active_events>
    80001b84:	97c2                	add	a5,a5,a6
    80001b86:	567d                	li	a2,-1
    80001b88:	a021                	j	80001b90 <sbi_pmu_ctr_cfg_match+0x156>
    80001b8a:	2a05                	addiw	s4,s4,1
    80001b8c:	28ba7d63          	bgeu	s4,a1,80001e26 <sbi_pmu_ctr_cfg_match+0x3ec>
    80001b90:	4398                	lw	a4,0(a5)
    80001b92:	0791                	addi	a5,a5,4
    80001b94:	fec71be3          	bne	a4,a2,80001b8a <sbi_pmu_ctr_cfg_match+0x150>
    80001b98:	01455733          	srl	a4,a0,s4
    80001b9c:	8b05                	andi	a4,a4,1
    80001b9e:	d775                	beqz	a4,80001b8a <sbi_pmu_ctr_cfg_match+0x150>
    80001ba0:	280a4363          	bltz	s4,80001e26 <sbi_pmu_ctr_cfg_match+0x3ec>
    80001ba4:	f6846603          	lwu	a2,-152(s0)
    80001ba8:	2481                	sext.w	s1,s1
    80001baa:	00161793          	slli	a5,a2,0x1
    80001bae:	97b2                	add	a5,a5,a2
    80001bb0:	0792                	slli	a5,a5,0x4
    80001bb2:	97d2                	add	a5,a5,s4
    80001bb4:	078a                	slli	a5,a5,0x2
    80001bb6:	983e                	add	a6,a6,a5
    80001bb8:	00982023          	sw	s1,0(a6)
    80001bbc:	14c2                	slli	s1,s1,0x30
    80001bbe:	0029f793          	andi	a5,s3,2
    80001bc2:	90c1                	srli	s1,s1,0x30
    80001bc4:	16079d63          	bnez	a5,80001d3e <sbi_pmu_ctr_cfg_match+0x304>
    80001bc8:	0049f993          	andi	s3,s3,4
    80001bcc:	f4098be3          	beqz	s3,80001b22 <sbi_pmu_ctr_cfg_match+0xe8>
    80001bd0:	00149793          	slli	a5,s1,0x1
    80001bd4:	00161713          	slli	a4,a2,0x1
    80001bd8:	97a6                	add	a5,a5,s1
    80001bda:	9732                	add	a4,a4,a2
    80001bdc:	0722                	slli	a4,a4,0x8
    80001bde:	078e                	slli	a5,a5,0x3
    80001be0:	97ba                	add	a5,a5,a4
    80001be2:	0001b717          	auipc	a4,0x1b
    80001be6:	66e70713          	addi	a4,a4,1646 # 8001d250 <fw_event_map>
    80001bea:	97ba                	add	a5,a5,a4
    80001bec:	4705                	li	a4,1
    80001bee:	cb98                	sw	a4,16(a5)
    80001bf0:	bf0d                	j	80001b22 <sbi_pmu_ctr_cfg_match+0xe8>
    80001bf2:	f4043823          	sd	zero,-176(s0)
    80001bf6:	f1402973          	csrr	s2,mhartid
    80001bfa:	340027f3          	csrr	a5,mscratch
    80001bfe:	000c6703          	lwu	a4,0(s8)
    80001c02:	f6f43023          	sd	a5,-160(s0)
    80001c06:	22ebf063          	bgeu	s7,a4,80001e26 <sbi_pmu_ctr_cfg_match+0x3ec>
    80001c0a:	4705                	li	a4,1
    80001c0c:	14e48a63          	beq	s1,a4,80001d60 <sbi_pmu_ctr_cfg_match+0x326>
    80001c10:	4709                	li	a4,2
    80001c12:	26e49363          	bne	s1,a4,80001e78 <sbi_pmu_ctr_cfg_match+0x43e>
    80001c16:	4789                	li	a5,2
    80001c18:	f4f43023          	sd	a5,-192(s0)
    80001c1c:	f6043503          	ld	a0,-160(s0)
    80001c20:	4581                	li	a1,0
    80001c22:	063050ef          	jal	ra,80007484 <sbi_hart_has_extension>
    80001c26:	24050163          	beqz	a0,80001e68 <sbi_pmu_ctr_cfg_match+0x42e>
    80001c2a:	f6043503          	ld	a0,-160(s0)
    80001c2e:	7ae050ef          	jal	ra,800073dc <sbi_hart_priv_version>
    80001c32:	4705                	li	a4,1
    80001c34:	00a75663          	bge	a4,a0,80001c40 <sbi_pmu_ctr_cfg_match+0x206>
    80001c38:	32002773          	csrr	a4,mucounteren
    80001c3c:	f4e43823          	sd	a4,-176(s0)
    80001c40:	004c2703          	lw	a4,4(s8)
    80001c44:	1e070363          	beqz	a4,80001e2a <sbi_pmu_ctr_cfg_match+0x3f0>
    80001c48:	1902                	slli	s2,s2,0x20
    80001c4a:	02095913          	srli	s2,s2,0x20
    80001c4e:	00191a93          	slli	s5,s2,0x1
    80001c52:	9aca                	add	s5,s5,s2
    80001c54:	f8840793          	addi	a5,s0,-120
    80001c58:	00039917          	auipc	s2,0x39
    80001c5c:	5f890913          	addi	s2,s2,1528 # 8003b250 <hw_event_map>
    80001c60:	5a79                	li	s4,-2
    80001c62:	4b01                	li	s6,0
    80001c64:	f6f43c23          	sd	a5,-136(s0)
    80001c68:	00033d97          	auipc	s11,0x33
    80001c6c:	5e8d8d93          	addi	s11,s11,1512 # 80035250 <active_events>
    80001c70:	0a92                	slli	s5,s5,0x4
    80001c72:	a80d                	j	80001ca4 <sbi_pmu_ctr_cfg_match+0x26a>
    80001c74:	00896703          	lwu	a4,8(s2)
    80001c78:	00e4ef63          	bltu	s1,a4,80001c96 <sbi_pmu_ctr_cfg_match+0x25c>
    80001c7c:	00020737          	lui	a4,0x20
    80001c80:	04e49063          	bne	s1,a4,80001cc0 <sbi_pmu_ctr_cfg_match+0x286>
    80001c84:	01893703          	ld	a4,24(s2)
    80001c88:	f5843783          	ld	a5,-168(s0)
    80001c8c:	01093603          	ld	a2,16(s2)
    80001c90:	8f7d                	and	a4,a4,a5
    80001c92:	02e60763          	beq	a2,a4,80001cc0 <sbi_pmu_ctr_cfg_match+0x286>
    80001c96:	004c2703          	lw	a4,4(s8)
    80001c9a:	2b05                	addiw	s6,s6,1
    80001c9c:	02090913          	addi	s2,s2,32
    80001ca0:	0eeb7d63          	bgeu	s6,a4,80001d9a <sbi_pmu_ctr_cfg_match+0x360>
    80001ca4:	00496703          	lwu	a4,4(s2)
    80001ca8:	fce4e6e3          	bltu	s1,a4,80001c74 <sbi_pmu_ctr_cfg_match+0x23a>
    80001cac:	fc9778e3          	bgeu	a4,s1,80001c7c <sbi_pmu_ctr_cfg_match+0x242>
    80001cb0:	00896703          	lwu	a4,8(s2)
    80001cb4:	fe9761e3          	bltu	a4,s1,80001c96 <sbi_pmu_ctr_cfg_match+0x25c>
    80001cb8:	00020737          	lui	a4,0x20
    80001cbc:	fce484e3          	beq	s1,a4,80001c84 <sbi_pmu_ctr_cfg_match+0x24a>
    80001cc0:	f4843783          	ld	a5,-184(s0)
    80001cc4:	00096703          	lwu	a4,0(s2)
    80001cc8:	f7843503          	ld	a0,-136(s0)
    80001ccc:	017795b3          	sll	a1,a5,s7
    80001cd0:	00b777b3          	and	a5,a4,a1
    80001cd4:	865e                	mv	a2,s7
    80001cd6:	9be1                	andi	a5,a5,-8
    80001cd8:	02000593          	li	a1,32
    80001cdc:	f8f43423          	sd	a5,-120(s0)
    80001ce0:	79f020ef          	jal	ra,80004c7e <find_next_bit>
    80001ce4:	477d                	li	a4,31
    80001ce6:	8baa                	mv	s7,a0
    80001ce8:	faa767e3          	bltu	a4,a0,80001c96 <sbi_pmu_ctr_cfg_match+0x25c>
    80001cec:	5d7d                	li	s10,-1
    80001cee:	4cfd                	li	s9,31
    80001cf0:	a821                	j	80001d08 <sbi_pmu_ctr_cfg_match+0x2ce>
    80001cf2:	f7843503          	ld	a0,-136(s0)
    80001cf6:	001b8613          	addi	a2,s7,1 # 10001 <_fw_start-0x7ffeffff>
    80001cfa:	02000593          	li	a1,32
    80001cfe:	781020ef          	jal	ra,80004c7e <find_next_bit>
    80001d02:	8baa                	mv	s7,a0
    80001d04:	f8ace9e3          	bltu	s9,a0,80001c96 <sbi_pmu_ctr_cfg_match+0x25c>
    80001d08:	017a8733          	add	a4,s5,s7
    80001d0c:	070a                	slli	a4,a4,0x2
    80001d0e:	976e                	add	a4,a4,s11
    80001d10:	4318                	lw	a4,0(a4)
    80001d12:	ffa710e3          	bne	a4,s10,80001cf2 <sbi_pmu_ctr_cfg_match+0x2b8>
    80001d16:	f6043503          	ld	a0,-160(s0)
    80001d1a:	6c2050ef          	jal	ra,800073dc <sbi_hart_priv_version>
    80001d1e:	f5043783          	ld	a5,-176(s0)
    80001d22:	000b861b          	sext.w	a2,s7
    80001d26:	00c7d733          	srl	a4,a5,a2
    80001d2a:	4785                	li	a5,1
    80001d2c:	8b05                	andi	a4,a4,1
    80001d2e:	00a7d363          	bge	a5,a0,80001d34 <sbi_pmu_ctr_cfg_match+0x2fa>
    80001d32:	d361                	beqz	a4,80001cf2 <sbi_pmu_ctr_cfg_match+0x2b8>
    80001d34:	8a32                	mv	s4,a2
    80001d36:	bf75                	j	80001cf2 <sbi_pmu_ctr_cfg_match+0x2b8>
    80001d38:	8a36                	mv	s4,a3
    80001d3a:	8736                	mv	a4,a3
    80001d3c:	b52d                	j	80001b66 <sbi_pmu_ctr_cfg_match+0x12c>
    80001d3e:	00149793          	slli	a5,s1,0x1
    80001d42:	00161713          	slli	a4,a2,0x1
    80001d46:	97a6                	add	a5,a5,s1
    80001d48:	9732                	add	a4,a4,a2
    80001d4a:	0722                	slli	a4,a4,0x8
    80001d4c:	078e                	slli	a5,a5,0x3
    80001d4e:	97ba                	add	a5,a5,a4
    80001d50:	0001b717          	auipc	a4,0x1b
    80001d54:	50070713          	addi	a4,a4,1280 # 8001d250 <fw_event_map>
    80001d58:	97ba                	add	a5,a5,a4
    80001d5a:	0007b423          	sd	zero,8(a5)
    80001d5e:	b5ad                	j	80001bc8 <sbi_pmu_ctr_cfg_match+0x18e>
    80001d60:	f4043023          	sd	zero,-192(s0)
    80001d64:	bd65                	j	80001c1c <sbi_pmu_ctr_cfg_match+0x1e2>
    80001d66:	f7043703          	ld	a4,-144(s0)
    80001d6a:	47bd                	li	a5,15
    80001d6c:	daf71be3          	bne	a4,a5,80001b22 <sbi_pmu_ctr_cfg_match+0xe8>
    80001d70:	2481                	sext.w	s1,s1
    80001d72:	b5a9                	j	80001bbc <sbi_pmu_ctr_cfg_match+0x182>
    80001d74:	6505                	lui	a0,0x1
    80001d76:	b005051b          	addiw	a0,a0,-1280
    80001d7a:	4581                	li	a1,0
    80001d7c:	0145053b          	addw	a0,a0,s4
    80001d80:	0049f993          	andi	s3,s3,4
    80001d84:	4c0020ef          	jal	ra,80004244 <csr_write_num>
    80001d88:	d8098de3          	beqz	s3,80001b22 <sbi_pmu_ctr_cfg_match+0xe8>
    80001d8c:	4601                	li	a2,0
    80001d8e:	4581                	li	a1,0
    80001d90:	000a051b          	sext.w	a0,s4
    80001d94:	df4ff0ef          	jal	ra,80001388 <pmu_ctr_start_hw>
    80001d98:	b369                	j	80001b22 <sbi_pmu_ctr_cfg_match+0xe8>
    80001d9a:	57f9                	li	a5,-2
    80001d9c:	08fa0763          	beq	s4,a5,80001e2a <sbi_pmu_ctr_cfg_match+0x3f0>
    80001da0:	34002af3          	csrr	s5,mscratch
    80001da4:	030ab783          	ld	a5,48(s5)
    80001da8:	cfbd                	beqz	a5,80001e26 <sbi_pmu_ctr_cfg_match+0x3ec>
    80001daa:	6fbc                	ld	a5,88(a5)
    80001dac:	6bbc                	ld	a5,80(a5)
    80001dae:	cfa5                	beqz	a5,80001e26 <sbi_pmu_ctr_cfg_match+0x3ec>
    80001db0:	f5843583          	ld	a1,-168(s0)
    80001db4:	2481                	sext.w	s1,s1
    80001db6:	8526                	mv	a0,s1
    80001db8:	9782                	jalr	a5
    80001dba:	892a                	mv	s2,a0
    80001dbc:	c52d                	beqz	a0,80001e26 <sbi_pmu_ctr_cfg_match+0x3ec>
    80001dbe:	ffda079b          	addiw	a5,s4,-3
    80001dc2:	4771                	li	a4,28
    80001dc4:	06f76163          	bltu	a4,a5,80001e26 <sbi_pmu_ctr_cfg_match+0x3ec>
    80001dc8:	4581                	li	a1,0
    80001dca:	8556                	mv	a0,s5
    80001dcc:	6b8050ef          	jal	ra,80007484 <sbi_hart_has_extension>
    80001dd0:	c909                	beqz	a0,80001de2 <sbi_pmu_ctr_cfg_match+0x3a8>
    80001dd2:	57fd                	li	a5,-1
    80001dd4:	0107d713          	srli	a4,a5,0x10
    80001dd8:	00e97733          	and	a4,s2,a4
    80001ddc:	17fa                	slli	a5,a5,0x3e
    80001dde:	00f76933          	or	s2,a4,a5
    80001de2:	0089f793          	andi	a5,s3,8
    80001de6:	c789                	beqz	a5,80001df0 <sbi_pmu_ctr_cfg_match+0x3b6>
    80001de8:	4785                	li	a5,1
    80001dea:	17ea                	slli	a5,a5,0x3a
    80001dec:	00f96933          	or	s2,s2,a5
    80001df0:	0109f793          	andi	a5,s3,16
    80001df4:	c789                	beqz	a5,80001dfe <sbi_pmu_ctr_cfg_match+0x3c4>
    80001df6:	4785                	li	a5,1
    80001df8:	17ee                	slli	a5,a5,0x3b
    80001dfa:	00f96933          	or	s2,s2,a5
    80001dfe:	0209f793          	andi	a5,s3,32
    80001e02:	c789                	beqz	a5,80001e0c <sbi_pmu_ctr_cfg_match+0x3d2>
    80001e04:	4785                	li	a5,1
    80001e06:	17f2                	slli	a5,a5,0x3c
    80001e08:	00f96933          	or	s2,s2,a5
    80001e0c:	0409f793          	andi	a5,s3,64
    80001e10:	c789                	beqz	a5,80001e1a <sbi_pmu_ctr_cfg_match+0x3e0>
    80001e12:	4785                	li	a5,1
    80001e14:	17f6                	slli	a5,a5,0x3d
    80001e16:	00f96933          	or	s2,s2,a5
    80001e1a:	85ca                	mv	a1,s2
    80001e1c:	320a051b          	addiw	a0,s4,800
    80001e20:	424020ef          	jal	ra,80004244 <csr_write_num>
    80001e24:	a839                	j	80001e42 <sbi_pmu_ctr_cfg_match+0x408>
    80001e26:	5a79                	li	s4,-2
    80001e28:	b9ed                	j	80001b22 <sbi_pmu_ctr_cfg_match+0xe8>
    80001e2a:	f4043783          	ld	a5,-192(s0)
    80001e2e:	86be                	mv	a3,a5
    80001e30:	0407c063          	bltz	a5,80001e70 <sbi_pmu_ctr_cfg_match+0x436>
    80001e34:	f4043783          	ld	a5,-192(s0)
    80001e38:	00068a1b          	sext.w	s4,a3
    80001e3c:	2481                	sext.w	s1,s1
    80001e3e:	fe07c4e3          	bltz	a5,80001e26 <sbi_pmu_ctr_cfg_match+0x3ec>
    80001e42:	f6846703          	lwu	a4,-152(s0)
    80001e46:	00171793          	slli	a5,a4,0x1
    80001e4a:	97ba                	add	a5,a5,a4
    80001e4c:	0792                	slli	a5,a5,0x4
    80001e4e:	97d2                	add	a5,a5,s4
    80001e50:	078a                	slli	a5,a5,0x2
    80001e52:	00033717          	auipc	a4,0x33
    80001e56:	3fe70713          	addi	a4,a4,1022 # 80035250 <active_events>
    80001e5a:	97ba                	add	a5,a5,a4
    80001e5c:	c384                	sw	s1,0(a5)
    80001e5e:	f7043783          	ld	a5,-144(s0)
    80001e62:	ca0788e3          	beqz	a5,80001b12 <sbi_pmu_ctr_cfg_match+0xd8>
    80001e66:	b975                	j	80001b22 <sbi_pmu_ctr_cfg_match+0xe8>
    80001e68:	f4043a03          	ld	s4,-192(s0)
    80001e6c:	2481                	sext.w	s1,s1
    80001e6e:	bfd1                	j	80001e42 <sbi_pmu_ctr_cfg_match+0x408>
    80001e70:	56fd                	li	a3,-1
    80001e72:	b7c9                	j	80001e34 <sbi_pmu_ctr_cfg_match+0x3fa>
    80001e74:	5a75                	li	s4,-3
    80001e76:	b175                	j	80001b22 <sbi_pmu_ctr_cfg_match+0xe8>
    80001e78:	57f5                	li	a5,-3
    80001e7a:	f4f43023          	sd	a5,-192(s0)
    80001e7e:	b375                	j	80001c2a <sbi_pmu_ctr_cfg_match+0x1f0>

0000000080001e80 <sbi_pmu_ctr_incr_fw>:
    80001e80:	1141                	addi	sp,sp,-16
    80001e82:	e422                	sd	s0,8(sp)
    80001e84:	0800                	addi	s0,sp,16
    80001e86:	f1402773          	csrr	a4,mhartid
    80001e8a:	47d5                	li	a5,21
    80001e8c:	02a7ef63          	bltu	a5,a0,80001eca <sbi_pmu_ctr_incr_fw+0x4a>
    80001e90:	2701                	sext.w	a4,a4
    80001e92:	1502                	slli	a0,a0,0x20
    80001e94:	1702                	slli	a4,a4,0x20
    80001e96:	9101                	srli	a0,a0,0x20
    80001e98:	9301                	srli	a4,a4,0x20
    80001e9a:	00151793          	slli	a5,a0,0x1
    80001e9e:	00171693          	slli	a3,a4,0x1
    80001ea2:	97aa                	add	a5,a5,a0
    80001ea4:	9736                	add	a4,a4,a3
    80001ea6:	0722                	slli	a4,a4,0x8
    80001ea8:	078e                	slli	a5,a5,0x3
    80001eaa:	97ba                	add	a5,a5,a4
    80001eac:	0001b717          	auipc	a4,0x1b
    80001eb0:	3a470713          	addi	a4,a4,932 # 8001d250 <fw_event_map>
    80001eb4:	97ba                	add	a5,a5,a4
    80001eb6:	4b98                	lw	a4,16(a5)
    80001eb8:	e709                	bnez	a4,80001ec2 <sbi_pmu_ctr_incr_fw+0x42>
    80001eba:	6422                	ld	s0,8(sp)
    80001ebc:	4501                	li	a0,0
    80001ebe:	0141                	addi	sp,sp,16
    80001ec0:	8082                	ret
    80001ec2:	6798                	ld	a4,8(a5)
    80001ec4:	0705                	addi	a4,a4,1
    80001ec6:	e798                	sd	a4,8(a5)
    80001ec8:	bfcd                	j	80001eba <sbi_pmu_ctr_incr_fw+0x3a>
    80001eca:	6422                	ld	s0,8(sp)
    80001ecc:	5575                	li	a0,-3
    80001ece:	0141                	addi	sp,sp,16
    80001ed0:	8082                	ret

0000000080001ed2 <sbi_pmu_num_ctr>:
    80001ed2:	1141                	addi	sp,sp,-16
    80001ed4:	e422                	sd	s0,8(sp)
    80001ed6:	0800                	addi	s0,sp,16
    80001ed8:	6422                	ld	s0,8(sp)
    80001eda:	0001b517          	auipc	a0,0x1b
    80001ede:	36652503          	lw	a0,870(a0) # 8001d240 <num_hw_ctrs>
    80001ee2:	2541                	addiw	a0,a0,16
    80001ee4:	1502                	slli	a0,a0,0x20
    80001ee6:	9101                	srli	a0,a0,0x20
    80001ee8:	0141                	addi	sp,sp,16
    80001eea:	8082                	ret

0000000080001eec <sbi_pmu_ctr_get_info>:
    80001eec:	340026f3          	csrr	a3,mscratch
    80001ef0:	0001b797          	auipc	a5,0x1b
    80001ef4:	35078793          	addi	a5,a5,848 # 8001d240 <num_hw_ctrs>
    80001ef8:	4798                	lw	a4,8(a5)
    80001efa:	06e57263          	bgeu	a0,a4,80001f5e <sbi_pmu_ctr_get_info+0x72>
    80001efe:	4705                	li	a4,1
    80001f00:	04e50f63          	beq	a0,a4,80001f5e <sbi_pmu_ctr_get_info+0x72>
    80001f04:	7179                	addi	sp,sp,-48
    80001f06:	f022                	sd	s0,32(sp)
    80001f08:	f406                	sd	ra,40(sp)
    80001f0a:	ec26                	sd	s1,24(sp)
    80001f0c:	1800                	addi	s0,sp,48
    80001f0e:	439c                	lw	a5,0(a5)
    80001f10:	02f57663          	bgeu	a0,a5,80001f3c <sbi_pmu_ctr_get_info+0x50>
    80001f14:	6485                	lui	s1,0x1
    80001f16:	c004849b          	addiw	s1,s1,-1024
    80001f1a:	9ca9                	addw	s1,s1,a0
    80001f1c:	14d2                	slli	s1,s1,0x34
    80001f1e:	ffd57793          	andi	a5,a0,-3
    80001f22:	90d1                	srli	s1,s1,0x34
    80001f24:	cf91                	beqz	a5,80001f40 <sbi_pmu_ctr_get_info+0x54>
    80001f26:	8536                	mv	a0,a3
    80001f28:	fcb43c23          	sd	a1,-40(s0)
    80001f2c:	396050ef          	jal	ra,800072c2 <sbi_hart_mhpm_bits>
    80001f30:	357d                	addiw	a0,a0,-1
    80001f32:	fd843583          	ld	a1,-40(s0)
    80001f36:	03f57513          	andi	a0,a0,63
    80001f3a:	a029                	j	80001f44 <sbi_pmu_ctr_get_info+0x58>
    80001f3c:	54fd                	li	s1,-1
    80001f3e:	14fe                	slli	s1,s1,0x3f
    80001f40:	03f00513          	li	a0,63
    80001f44:	fffc17b7          	lui	a5,0xfffc1
    80001f48:	17fd                	addi	a5,a5,-1
    80001f4a:	0532                	slli	a0,a0,0xc
    80001f4c:	8cfd                	and	s1,s1,a5
    80001f4e:	8cc9                	or	s1,s1,a0
    80001f50:	e184                	sd	s1,0(a1)
    80001f52:	70a2                	ld	ra,40(sp)
    80001f54:	7402                	ld	s0,32(sp)
    80001f56:	64e2                	ld	s1,24(sp)
    80001f58:	4501                	li	a0,0
    80001f5a:	6145                	addi	sp,sp,48
    80001f5c:	8082                	ret
    80001f5e:	5575                	li	a0,-3
    80001f60:	8082                	ret

0000000080001f62 <sbi_pmu_exit>:
    80001f62:	1101                	addi	sp,sp,-32
    80001f64:	e822                	sd	s0,16(sp)
    80001f66:	e04a                	sd	s2,0(sp)
    80001f68:	ec06                	sd	ra,24(sp)
    80001f6a:	e426                	sd	s1,8(sp)
    80001f6c:	1000                	addi	s0,sp,32
    80001f6e:	892a                	mv	s2,a0
    80001f70:	f14024f3          	csrr	s1,mhartid
    80001f74:	468050ef          	jal	ra,800073dc <sbi_hart_priv_version>
    80001f78:	4785                	li	a5,1
    80001f7a:	00a7d663          	bge	a5,a0,80001f86 <sbi_pmu_exit+0x24>
    80001f7e:	1782                	slli	a5,a5,0x20
    80001f80:	17e1                	addi	a5,a5,-8
    80001f82:	32079073          	csrw	mucounteren,a5
    80001f86:	854a                	mv	a0,s2
    80001f88:	454050ef          	jal	ra,800073dc <sbi_hart_priv_version>
    80001f8c:	00a05563          	blez	a0,80001f96 <sbi_pmu_exit+0x34>
    80001f90:	57fd                	li	a5,-1
    80001f92:	30679073          	csrw	mcounteren,a5
    80001f96:	0001b717          	auipc	a4,0x1b
    80001f9a:	2b272703          	lw	a4,690(a4) # 8001d248 <total_ctrs>
    80001f9e:	478d                	li	a5,3
    80001fa0:	04e7f063          	bgeu	a5,a4,80001fe0 <sbi_pmu_exit+0x7e>
    80001fa4:	02049693          	slli	a3,s1,0x20
    80001fa8:	9281                	srli	a3,a3,0x20
    80001faa:	00169793          	slli	a5,a3,0x1
    80001fae:	97b6                	add	a5,a5,a3
    80001fb0:	ffc7069b          	addiw	a3,a4,-4
    80001fb4:	1682                	slli	a3,a3,0x20
    80001fb6:	00479713          	slli	a4,a5,0x4
    80001fba:	9281                	srli	a3,a3,0x20
    80001fbc:	9736                	add	a4,a4,a3
    80001fbe:	079a                	slli	a5,a5,0x6
    80001fc0:	00033697          	auipc	a3,0x33
    80001fc4:	29068693          	addi	a3,a3,656 # 80035250 <active_events>
    80001fc8:	070a                	slli	a4,a4,0x2
    80001fca:	97b6                	add	a5,a5,a3
    80001fcc:	00033697          	auipc	a3,0x33
    80001fd0:	28868693          	addi	a3,a3,648 # 80035254 <active_events+0x4>
    80001fd4:	9736                	add	a4,a4,a3
    80001fd6:	56fd                	li	a3,-1
    80001fd8:	c7d4                	sw	a3,12(a5)
    80001fda:	0791                	addi	a5,a5,4
    80001fdc:	fee79ee3          	bne	a5,a4,80001fd8 <sbi_pmu_exit+0x76>
    80001fe0:	1482                	slli	s1,s1,0x20
    80001fe2:	9081                	srli	s1,s1,0x20
    80001fe4:	00149793          	slli	a5,s1,0x1
    80001fe8:	97a6                	add	a5,a5,s1
    80001fea:	07a2                	slli	a5,a5,0x8
    80001fec:	0001b497          	auipc	s1,0x1b
    80001ff0:	26448493          	addi	s1,s1,612 # 8001d250 <fw_event_map>
    80001ff4:	0001b917          	auipc	s2,0x1b
    80001ff8:	3dc90913          	addi	s2,s2,988 # 8001d3d0 <fw_event_map+0x180>
    80001ffc:	94be                	add	s1,s1,a5
    80001ffe:	993e                	add	s2,s2,a5
    80002000:	8526                	mv	a0,s1
    80002002:	4661                	li	a2,24
    80002004:	04e1                	addi	s1,s1,24
    80002006:	4581                	li	a1,0
    80002008:	3f0000ef          	jal	ra,800023f8 <sbi_memset>
    8000200c:	ff249ae3          	bne	s1,s2,80002000 <sbi_pmu_exit+0x9e>
    80002010:	60e2                	ld	ra,24(sp)
    80002012:	6442                	ld	s0,16(sp)
    80002014:	64a2                	ld	s1,8(sp)
    80002016:	6902                	ld	s2,0(sp)
    80002018:	6105                	addi	sp,sp,32
    8000201a:	8082                	ret

000000008000201c <sbi_pmu_init>:
    8000201c:	7179                	addi	sp,sp,-48
    8000201e:	f022                	sd	s0,32(sp)
    80002020:	f406                	sd	ra,40(sp)
    80002022:	ec26                	sd	s1,24(sp)
    80002024:	e84a                	sd	s2,16(sp)
    80002026:	e44e                	sd	s3,8(sp)
    80002028:	e052                	sd	s4,0(sp)
    8000202a:	1800                	addi	s0,sp,48
    8000202c:	f14024f3          	csrr	s1,mhartid
    80002030:	0004899b          	sext.w	s3,s1
    80002034:	e5dd                	bnez	a1,800020e2 <sbi_pmu_init+0xc6>
    80002036:	0001b717          	auipc	a4,0x1b
    8000203a:	21272703          	lw	a4,530(a4) # 8001d248 <total_ctrs>
    8000203e:	478d                	li	a5,3
    80002040:	0ce7f763          	bgeu	a5,a4,8000210e <sbi_pmu_init+0xf2>
    80002044:	02049693          	slli	a3,s1,0x20
    80002048:	9281                	srli	a3,a3,0x20
    8000204a:	00169793          	slli	a5,a3,0x1
    8000204e:	97b6                	add	a5,a5,a3
    80002050:	ffc7069b          	addiw	a3,a4,-4
    80002054:	1682                	slli	a3,a3,0x20
    80002056:	00479713          	slli	a4,a5,0x4
    8000205a:	9281                	srli	a3,a3,0x20
    8000205c:	9736                	add	a4,a4,a3
    8000205e:	079a                	slli	a5,a5,0x6
    80002060:	00033697          	auipc	a3,0x33
    80002064:	1f468693          	addi	a3,a3,500 # 80035254 <active_events+0x4>
    80002068:	00033a17          	auipc	s4,0x33
    8000206c:	1e8a0a13          	addi	s4,s4,488 # 80035250 <active_events>
    80002070:	070a                	slli	a4,a4,0x2
    80002072:	9736                	add	a4,a4,a3
    80002074:	97d2                	add	a5,a5,s4
    80002076:	56fd                	li	a3,-1
    80002078:	c7d4                	sw	a3,12(a5)
    8000207a:	0791                	addi	a5,a5,4
    8000207c:	fee79ee3          	bne	a5,a4,80002078 <sbi_pmu_init+0x5c>
    80002080:	1482                	slli	s1,s1,0x20
    80002082:	9081                	srli	s1,s1,0x20
    80002084:	00149793          	slli	a5,s1,0x1
    80002088:	97a6                	add	a5,a5,s1
    8000208a:	07a2                	slli	a5,a5,0x8
    8000208c:	0001b497          	auipc	s1,0x1b
    80002090:	1c448493          	addi	s1,s1,452 # 8001d250 <fw_event_map>
    80002094:	0001b917          	auipc	s2,0x1b
    80002098:	33c90913          	addi	s2,s2,828 # 8001d3d0 <fw_event_map+0x180>
    8000209c:	94be                	add	s1,s1,a5
    8000209e:	993e                	add	s2,s2,a5
    800020a0:	8526                	mv	a0,s1
    800020a2:	4661                	li	a2,24
    800020a4:	04e1                	addi	s1,s1,24
    800020a6:	4581                	li	a1,0
    800020a8:	350000ef          	jal	ra,800023f8 <sbi_memset>
    800020ac:	ff249ae3          	bne	s1,s2,800020a0 <sbi_pmu_init+0x84>
    800020b0:	1982                	slli	s3,s3,0x20
    800020b2:	0209d993          	srli	s3,s3,0x20
    800020b6:	00199713          	slli	a4,s3,0x1
    800020ba:	974e                	add	a4,a4,s3
    800020bc:	57fd                	li	a5,-1
    800020be:	071a                	slli	a4,a4,0x6
    800020c0:	1782                	slli	a5,a5,0x20
    800020c2:	9a3a                	add	s4,s4,a4
    800020c4:	0785                	addi	a5,a5,1
    800020c6:	00fa3023          	sd	a5,0(s4)
    800020ca:	4789                	li	a5,2
    800020cc:	00fa2423          	sw	a5,8(s4)
    800020d0:	70a2                	ld	ra,40(sp)
    800020d2:	7402                	ld	s0,32(sp)
    800020d4:	64e2                	ld	s1,24(sp)
    800020d6:	6942                	ld	s2,16(sp)
    800020d8:	69a2                	ld	s3,8(sp)
    800020da:	6a02                	ld	s4,0(sp)
    800020dc:	4501                	li	a0,0
    800020de:	6145                	addi	sp,sp,48
    800020e0:	8082                	ret
    800020e2:	791c                	ld	a5,48(a0)
    800020e4:	892a                	mv	s2,a0
    800020e6:	c789                	beqz	a5,800020f0 <sbi_pmu_init+0xd4>
    800020e8:	6fbc                	ld	a5,88(a5)
    800020ea:	67bc                	ld	a5,72(a5)
    800020ec:	c391                	beqz	a5,800020f0 <sbi_pmu_init+0xd4>
    800020ee:	9782                	jalr	a5
    800020f0:	854a                	mv	a0,s2
    800020f2:	170050ef          	jal	ra,80007262 <sbi_hart_mhpm_count>
    800020f6:	0001b797          	auipc	a5,0x1b
    800020fa:	14a78793          	addi	a5,a5,330 # 8001d240 <num_hw_ctrs>
    800020fe:	0135071b          	addiw	a4,a0,19
    80002102:	250d                	addiw	a0,a0,3
    80002104:	c388                	sw	a0,0(a5)
    80002106:	c798                	sw	a4,8(a5)
    80002108:	478d                	li	a5,3
    8000210a:	f2e7ede3          	bltu	a5,a4,80002044 <sbi_pmu_init+0x28>
    8000210e:	00033a17          	auipc	s4,0x33
    80002112:	142a0a13          	addi	s4,s4,322 # 80035250 <active_events>
    80002116:	b7ad                	j	80002080 <sbi_pmu_init+0x64>

0000000080002118 <sbi_scratch_init>:
    80002118:	715d                	addi	sp,sp,-80
    8000211a:	e0a2                	sd	s0,64(sp)
    8000211c:	fc26                	sd	s1,56(sp)
    8000211e:	f84a                	sd	s2,48(sp)
    80002120:	ec56                	sd	s5,24(sp)
    80002122:	e85a                	sd	s6,16(sp)
    80002124:	e45e                	sd	s7,8(sp)
    80002126:	e486                	sd	ra,72(sp)
    80002128:	f44e                	sd	s3,40(sp)
    8000212a:	f052                	sd	s4,32(sp)
    8000212c:	e062                	sd	s8,0(sp)
    8000212e:	0880                	addi	s0,sp,80
    80002130:	03053983          	ld	s3,48(a0)
    80002134:	8b2a                	mv	s6,a0
    80002136:	0003b917          	auipc	s2,0x3b
    8000213a:	11a90913          	addi	s2,s2,282 # 8003d250 <hartid_to_scratch_table>
    8000213e:	4481                	li	s1,0
    80002140:	00017b97          	auipc	s7,0x17
    80002144:	ef8b8b93          	addi	s7,s7,-264 # 80019038 <last_hartid_having_scratch>
    80002148:	08000a93          	li	s5,128
    8000214c:	02099363          	bnez	s3,80002172 <sbi_scratch_init+0x5a>
    80002150:	0485                	addi	s1,s1,1
    80002152:	0921                	addi	s2,s2,8
    80002154:	ff549ce3          	bne	s1,s5,8000214c <sbi_scratch_init+0x34>
    80002158:	60a6                	ld	ra,72(sp)
    8000215a:	6406                	ld	s0,64(sp)
    8000215c:	74e2                	ld	s1,56(sp)
    8000215e:	7942                	ld	s2,48(sp)
    80002160:	79a2                	ld	s3,40(sp)
    80002162:	7a02                	ld	s4,32(sp)
    80002164:	6ae2                	ld	s5,24(sp)
    80002166:	6b42                	ld	s6,16(sp)
    80002168:	6ba2                	ld	s7,8(sp)
    8000216a:	6c02                	ld	s8,0(sp)
    8000216c:	4501                	li	a0,0
    8000216e:	6161                	addi	sp,sp,80
    80002170:	8082                	ret
    80002172:	00048a1b          	sext.w	s4,s1
    80002176:	85d2                	mv	a1,s4
    80002178:	854e                	mv	a0,s3
    8000217a:	0509ac03          	lw	s8,80(s3)
    8000217e:	9d6ff0ef          	jal	ra,80001354 <sbi_platform_hart_index>
    80002182:	87aa                	mv	a5,a0
    80002184:	2781                	sext.w	a5,a5
    80002186:	85d2                	mv	a1,s4
    80002188:	854e                	mv	a0,s3
    8000218a:	fd87f3e3          	bgeu	a5,s8,80002150 <sbi_scratch_init+0x38>
    8000218e:	038b3c03          	ld	s8,56(s6)
    80002192:	9c2ff0ef          	jal	ra,80001354 <sbi_platform_hart_index>
    80002196:	02051593          	slli	a1,a0,0x20
    8000219a:	9181                	srli	a1,a1,0x20
    8000219c:	8526                	mv	a0,s1
    8000219e:	9c02                	jalr	s8
    800021a0:	00a93023          	sd	a0,0(s2)
    800021a4:	c119                	beqz	a0,800021aa <sbi_scratch_init+0x92>
    800021a6:	014ba023          	sw	s4,0(s7)
    800021aa:	0485                	addi	s1,s1,1
    800021ac:	0921                	addi	s2,s2,8
    800021ae:	fd5492e3          	bne	s1,s5,80002172 <sbi_scratch_init+0x5a>
    800021b2:	b75d                	j	80002158 <sbi_scratch_init+0x40>

00000000800021b4 <sbi_scratch_alloc_offset>:
    800021b4:	7139                	addi	sp,sp,-64
    800021b6:	f822                	sd	s0,48(sp)
    800021b8:	fc06                	sd	ra,56(sp)
    800021ba:	f426                	sd	s1,40(sp)
    800021bc:	f04a                	sd	s2,32(sp)
    800021be:	ec4e                	sd	s3,24(sp)
    800021c0:	e852                	sd	s4,16(sp)
    800021c2:	e456                	sd	s5,8(sp)
    800021c4:	0080                	addi	s0,sp,64
    800021c6:	c159                	beqz	a0,8000224c <sbi_scratch_alloc_offset+0x98>
    800021c8:	00757793          	andi	a5,a0,7
    800021cc:	84aa                	mv	s1,a0
    800021ce:	c781                	beqz	a5,800021d6 <sbi_scratch_alloc_offset+0x22>
    800021d0:	ff857493          	andi	s1,a0,-8
    800021d4:	04a1                	addi	s1,s1,8
    800021d6:	0003b517          	auipc	a0,0x3b
    800021da:	47a50513          	addi	a0,a0,1146 # 8003d650 <extra_lock>
    800021de:	00017a97          	auipc	s5,0x17
    800021e2:	e5aa8a93          	addi	s5,s5,-422 # 80019038 <last_hartid_having_scratch>
    800021e6:	7d8020ef          	jal	ra,800049be <spin_lock>
    800021ea:	008aba03          	ld	s4,8(s5)
    800021ee:	6705                	lui	a4,0x1
    800021f0:	0003b517          	auipc	a0,0x3b
    800021f4:	46050513          	addi	a0,a0,1120 # 8003d650 <extra_lock>
    800021f8:	009a07b3          	add	a5,s4,s1
    800021fc:	04f76663          	bltu	a4,a5,80002248 <sbi_scratch_alloc_offset+0x94>
    80002200:	00fab423          	sd	a5,8(s5)
    80002204:	7e6020ef          	jal	ra,800049ea <spin_unlock>
    80002208:	040a0263          	beqz	s4,8000224c <sbi_scratch_alloc_offset+0x98>
    8000220c:	0003b997          	auipc	s3,0x3b
    80002210:	04498993          	addi	s3,s3,68 # 8003d250 <hartid_to_scratch_table>
    80002214:	4901                	li	s2,0
    80002216:	0009b783          	ld	a5,0(s3)
    8000221a:	2905                	addiw	s2,s2,1
    8000221c:	8626                	mv	a2,s1
    8000221e:	4581                	li	a1,0
    80002220:	01478533          	add	a0,a5,s4
    80002224:	c399                	beqz	a5,8000222a <sbi_scratch_alloc_offset+0x76>
    80002226:	1d2000ef          	jal	ra,800023f8 <sbi_memset>
    8000222a:	000aa783          	lw	a5,0(s5)
    8000222e:	09a1                	addi	s3,s3,8
    80002230:	ff27f3e3          	bgeu	a5,s2,80002216 <sbi_scratch_alloc_offset+0x62>
    80002234:	70e2                	ld	ra,56(sp)
    80002236:	7442                	ld	s0,48(sp)
    80002238:	74a2                	ld	s1,40(sp)
    8000223a:	7902                	ld	s2,32(sp)
    8000223c:	69e2                	ld	s3,24(sp)
    8000223e:	6aa2                	ld	s5,8(sp)
    80002240:	8552                	mv	a0,s4
    80002242:	6a42                	ld	s4,16(sp)
    80002244:	6121                	addi	sp,sp,64
    80002246:	8082                	ret
    80002248:	7a2020ef          	jal	ra,800049ea <spin_unlock>
    8000224c:	4a01                	li	s4,0
    8000224e:	b7dd                	j	80002234 <sbi_scratch_alloc_offset+0x80>

0000000080002250 <sbi_scratch_free_offset>:
    80002250:	1141                	addi	sp,sp,-16
    80002252:	e422                	sd	s0,8(sp)
    80002254:	0800                	addi	s0,sp,16
    80002256:	6422                	ld	s0,8(sp)
    80002258:	0141                	addi	sp,sp,16
    8000225a:	8082                	ret

000000008000225c <sbi_strcmp>:
    8000225c:	1141                	addi	sp,sp,-16
    8000225e:	e422                	sd	s0,8(sp)
    80002260:	0800                	addi	s0,sp,16
    80002262:	00054783          	lbu	a5,0(a0)
    80002266:	0005c703          	lbu	a4,0(a1) # 20000 <_fw_start-0x7ffe0000>
    8000226a:	00f70963          	beq	a4,a5,8000227c <sbi_strcmp+0x20>
    8000226e:	a839                	j	8000228c <sbi_strcmp+0x30>
    80002270:	00054783          	lbu	a5,0(a0)
    80002274:	0005c703          	lbu	a4,0(a1)
    80002278:	00e79a63          	bne	a5,a4,8000228c <sbi_strcmp+0x30>
    8000227c:	0505                	addi	a0,a0,1
    8000227e:	0585                	addi	a1,a1,1
    80002280:	fbe5                	bnez	a5,80002270 <sbi_strcmp+0x14>
    80002282:	6422                	ld	s0,8(sp)
    80002284:	4501                	li	a0,0
    80002286:	9d19                	subw	a0,a0,a4
    80002288:	0141                	addi	sp,sp,16
    8000228a:	8082                	ret
    8000228c:	6422                	ld	s0,8(sp)
    8000228e:	0007851b          	sext.w	a0,a5
    80002292:	9d19                	subw	a0,a0,a4
    80002294:	0141                	addi	sp,sp,16
    80002296:	8082                	ret

0000000080002298 <sbi_strncmp>:
    80002298:	1141                	addi	sp,sp,-16
    8000229a:	e422                	sd	s0,8(sp)
    8000229c:	0800                	addi	s0,sp,16
    8000229e:	e611                	bnez	a2,800022aa <sbi_strncmp+0x12>
    800022a0:	a025                	j	800022c8 <sbi_strncmp+0x30>
    800022a2:	cb99                	beqz	a5,800022b8 <sbi_strncmp+0x20>
    800022a4:	0505                	addi	a0,a0,1
    800022a6:	0585                	addi	a1,a1,1
    800022a8:	c205                	beqz	a2,800022c8 <sbi_strncmp+0x30>
    800022aa:	0005c783          	lbu	a5,0(a1)
    800022ae:	00054703          	lbu	a4,0(a0)
    800022b2:	167d                	addi	a2,a2,-1
    800022b4:	fee787e3          	beq	a5,a4,800022a2 <sbi_strncmp+0xa>
    800022b8:	00054503          	lbu	a0,0(a0)
    800022bc:	0005c783          	lbu	a5,0(a1)
    800022c0:	6422                	ld	s0,8(sp)
    800022c2:	9d1d                	subw	a0,a0,a5
    800022c4:	0141                	addi	sp,sp,16
    800022c6:	8082                	ret
    800022c8:	6422                	ld	s0,8(sp)
    800022ca:	4501                	li	a0,0
    800022cc:	0141                	addi	sp,sp,16
    800022ce:	8082                	ret

00000000800022d0 <sbi_strlen>:
    800022d0:	1141                	addi	sp,sp,-16
    800022d2:	e422                	sd	s0,8(sp)
    800022d4:	0800                	addi	s0,sp,16
    800022d6:	00054783          	lbu	a5,0(a0)
    800022da:	cf81                	beqz	a5,800022f2 <sbi_strlen+0x22>
    800022dc:	872a                	mv	a4,a0
    800022de:	4501                	li	a0,0
    800022e0:	0505                	addi	a0,a0,1
    800022e2:	00a707b3          	add	a5,a4,a0
    800022e6:	0007c783          	lbu	a5,0(a5)
    800022ea:	fbfd                	bnez	a5,800022e0 <sbi_strlen+0x10>
    800022ec:	6422                	ld	s0,8(sp)
    800022ee:	0141                	addi	sp,sp,16
    800022f0:	8082                	ret
    800022f2:	6422                	ld	s0,8(sp)
    800022f4:	4501                	li	a0,0
    800022f6:	0141                	addi	sp,sp,16
    800022f8:	8082                	ret

00000000800022fa <sbi_strnlen>:
    800022fa:	1141                	addi	sp,sp,-16
    800022fc:	e422                	sd	s0,8(sp)
    800022fe:	0800                	addi	s0,sp,16
    80002300:	00054783          	lbu	a5,0(a0)
    80002304:	c395                	beqz	a5,80002328 <sbi_strnlen+0x2e>
    80002306:	c18d                	beqz	a1,80002328 <sbi_strnlen+0x2e>
    80002308:	86aa                	mv	a3,a0
    8000230a:	4501                	li	a0,0
    8000230c:	a019                	j	80002312 <sbi_strnlen+0x18>
    8000230e:	00e57a63          	bgeu	a0,a4,80002322 <sbi_strnlen+0x28>
    80002312:	0505                	addi	a0,a0,1
    80002314:	00a687b3          	add	a5,a3,a0
    80002318:	0007c783          	lbu	a5,0(a5)
    8000231c:	40a58733          	sub	a4,a1,a0
    80002320:	f7fd                	bnez	a5,8000230e <sbi_strnlen+0x14>
    80002322:	6422                	ld	s0,8(sp)
    80002324:	0141                	addi	sp,sp,16
    80002326:	8082                	ret
    80002328:	6422                	ld	s0,8(sp)
    8000232a:	4501                	li	a0,0
    8000232c:	0141                	addi	sp,sp,16
    8000232e:	8082                	ret

0000000080002330 <sbi_strcpy>:
    80002330:	1141                	addi	sp,sp,-16
    80002332:	e422                	sd	s0,8(sp)
    80002334:	0800                	addi	s0,sp,16
    80002336:	0005c783          	lbu	a5,0(a1)
    8000233a:	cb89                	beqz	a5,8000234c <sbi_strcpy+0x1c>
    8000233c:	872a                	mv	a4,a0
    8000233e:	00f70023          	sb	a5,0(a4) # 1000 <_fw_start-0x7ffff000>
    80002342:	0015c783          	lbu	a5,1(a1)
    80002346:	0585                	addi	a1,a1,1
    80002348:	0705                	addi	a4,a4,1
    8000234a:	fbf5                	bnez	a5,8000233e <sbi_strcpy+0xe>
    8000234c:	6422                	ld	s0,8(sp)
    8000234e:	0141                	addi	sp,sp,16
    80002350:	8082                	ret

0000000080002352 <sbi_strncpy>:
    80002352:	1141                	addi	sp,sp,-16
    80002354:	e422                	sd	s0,8(sp)
    80002356:	0800                	addi	s0,sp,16
    80002358:	ce09                	beqz	a2,80002372 <sbi_strncpy+0x20>
    8000235a:	962a                	add	a2,a2,a0
    8000235c:	87aa                	mv	a5,a0
    8000235e:	a029                	j	80002368 <sbi_strncpy+0x16>
    80002360:	fee78fa3          	sb	a4,-1(a5)
    80002364:	00c78763          	beq	a5,a2,80002372 <sbi_strncpy+0x20>
    80002368:	0005c703          	lbu	a4,0(a1)
    8000236c:	0785                	addi	a5,a5,1
    8000236e:	0585                	addi	a1,a1,1
    80002370:	fb65                	bnez	a4,80002360 <sbi_strncpy+0xe>
    80002372:	6422                	ld	s0,8(sp)
    80002374:	0141                	addi	sp,sp,16
    80002376:	8082                	ret

0000000080002378 <sbi_strchr>:
    80002378:	1141                	addi	sp,sp,-16
    8000237a:	e422                	sd	s0,8(sp)
    8000237c:	0800                	addi	s0,sp,16
    8000237e:	00054783          	lbu	a5,0(a0)
    80002382:	cb89                	beqz	a5,80002394 <sbi_strchr+0x1c>
    80002384:	0ff5f593          	andi	a1,a1,255
    80002388:	00f58763          	beq	a1,a5,80002396 <sbi_strchr+0x1e>
    8000238c:	00154783          	lbu	a5,1(a0)
    80002390:	0505                	addi	a0,a0,1
    80002392:	fbfd                	bnez	a5,80002388 <sbi_strchr+0x10>
    80002394:	4501                	li	a0,0
    80002396:	6422                	ld	s0,8(sp)
    80002398:	0141                	addi	sp,sp,16
    8000239a:	8082                	ret

000000008000239c <sbi_strrchr>:
    8000239c:	1141                	addi	sp,sp,-16
    8000239e:	e422                	sd	s0,8(sp)
    800023a0:	0800                	addi	s0,sp,16
    800023a2:	00054683          	lbu	a3,0(a0)
    800023a6:	872a                	mv	a4,a0
    800023a8:	0ff5f593          	andi	a1,a1,255
    800023ac:	c2b1                	beqz	a3,800023f0 <sbi_strrchr+0x54>
    800023ae:	4781                	li	a5,0
    800023b0:	0785                	addi	a5,a5,1
    800023b2:	00f70533          	add	a0,a4,a5
    800023b6:	00054683          	lbu	a3,0(a0)
    800023ba:	fafd                	bnez	a3,800023b0 <sbi_strrchr+0x14>
    800023bc:	87aa                	mv	a5,a0
    800023be:	00a76663          	bltu	a4,a0,800023ca <sbi_strrchr+0x2e>
    800023c2:	a839                	j	800023e0 <sbi_strrchr+0x44>
    800023c4:	00f70c63          	beq	a4,a5,800023dc <sbi_strrchr+0x40>
    800023c8:	853e                	mv	a0,a5
    800023ca:	00054683          	lbu	a3,0(a0)
    800023ce:	fff50793          	addi	a5,a0,-1
    800023d2:	feb699e3          	bne	a3,a1,800023c4 <sbi_strrchr+0x28>
    800023d6:	6422                	ld	s0,8(sp)
    800023d8:	0141                	addi	sp,sp,16
    800023da:	8082                	ret
    800023dc:	fff54683          	lbu	a3,-1(a0)
    800023e0:	00b68663          	beq	a3,a1,800023ec <sbi_strrchr+0x50>
    800023e4:	6422                	ld	s0,8(sp)
    800023e6:	4501                	li	a0,0
    800023e8:	0141                	addi	sp,sp,16
    800023ea:	8082                	ret
    800023ec:	853e                	mv	a0,a5
    800023ee:	b7e5                	j	800023d6 <sbi_strrchr+0x3a>
    800023f0:	87aa                	mv	a5,a0
    800023f2:	feb699e3          	bne	a3,a1,800023e4 <sbi_strrchr+0x48>
    800023f6:	bfdd                	j	800023ec <sbi_strrchr+0x50>

00000000800023f8 <sbi_memset>:
    800023f8:	1141                	addi	sp,sp,-16
    800023fa:	e422                	sd	s0,8(sp)
    800023fc:	0800                	addi	s0,sp,16
    800023fe:	00c50733          	add	a4,a0,a2
    80002402:	ca09                	beqz	a2,80002414 <sbi_memset+0x1c>
    80002404:	0ff5f593          	andi	a1,a1,255
    80002408:	87aa                	mv	a5,a0
    8000240a:	0785                	addi	a5,a5,1
    8000240c:	feb78fa3          	sb	a1,-1(a5)
    80002410:	fee79de3          	bne	a5,a4,8000240a <sbi_memset+0x12>
    80002414:	6422                	ld	s0,8(sp)
    80002416:	0141                	addi	sp,sp,16
    80002418:	8082                	ret

000000008000241a <sbi_memcpy>:
    8000241a:	1141                	addi	sp,sp,-16
    8000241c:	e422                	sd	s0,8(sp)
    8000241e:	0800                	addi	s0,sp,16
    80002420:	ca19                	beqz	a2,80002436 <sbi_memcpy+0x1c>
    80002422:	962a                	add	a2,a2,a0
    80002424:	87aa                	mv	a5,a0
    80002426:	0005c703          	lbu	a4,0(a1)
    8000242a:	0785                	addi	a5,a5,1
    8000242c:	0585                	addi	a1,a1,1
    8000242e:	fee78fa3          	sb	a4,-1(a5)
    80002432:	fec79ae3          	bne	a5,a2,80002426 <sbi_memcpy+0xc>
    80002436:	6422                	ld	s0,8(sp)
    80002438:	0141                	addi	sp,sp,16
    8000243a:	8082                	ret

000000008000243c <sbi_memmove>:
    8000243c:	1141                	addi	sp,sp,-16
    8000243e:	e422                	sd	s0,8(sp)
    80002440:	0800                	addi	s0,sp,16
    80002442:	00b50f63          	beq	a0,a1,80002460 <sbi_memmove+0x24>
    80002446:	02b57063          	bgeu	a0,a1,80002466 <sbi_memmove+0x2a>
    8000244a:	ca19                	beqz	a2,80002460 <sbi_memmove+0x24>
    8000244c:	962a                	add	a2,a2,a0
    8000244e:	87aa                	mv	a5,a0
    80002450:	0005c703          	lbu	a4,0(a1)
    80002454:	0785                	addi	a5,a5,1
    80002456:	0585                	addi	a1,a1,1
    80002458:	fee78fa3          	sb	a4,-1(a5)
    8000245c:	fef61ae3          	bne	a2,a5,80002450 <sbi_memmove+0x14>
    80002460:	6422                	ld	s0,8(sp)
    80002462:	0141                	addi	sp,sp,16
    80002464:	8082                	ret
    80002466:	fff60713          	addi	a4,a2,-1
    8000246a:	00e507b3          	add	a5,a0,a4
    8000246e:	95ba                	add	a1,a1,a4
    80002470:	da65                	beqz	a2,80002460 <sbi_memmove+0x24>
    80002472:	fff50693          	addi	a3,a0,-1
    80002476:	0005c703          	lbu	a4,0(a1)
    8000247a:	17fd                	addi	a5,a5,-1
    8000247c:	15fd                	addi	a1,a1,-1
    8000247e:	00e780a3          	sb	a4,1(a5)
    80002482:	fef69ae3          	bne	a3,a5,80002476 <sbi_memmove+0x3a>
    80002486:	6422                	ld	s0,8(sp)
    80002488:	0141                	addi	sp,sp,16
    8000248a:	8082                	ret

000000008000248c <sbi_memcmp>:
    8000248c:	1141                	addi	sp,sp,-16
    8000248e:	e422                	sd	s0,8(sp)
    80002490:	0800                	addi	s0,sp,16
    80002492:	e609                	bnez	a2,8000249c <sbi_memcmp+0x10>
    80002494:	a01d                	j	800024ba <sbi_memcmp+0x2e>
    80002496:	0505                	addi	a0,a0,1
    80002498:	0585                	addi	a1,a1,1
    8000249a:	c205                	beqz	a2,800024ba <sbi_memcmp+0x2e>
    8000249c:	00054703          	lbu	a4,0(a0)
    800024a0:	0005c783          	lbu	a5,0(a1)
    800024a4:	167d                	addi	a2,a2,-1
    800024a6:	fef708e3          	beq	a4,a5,80002496 <sbi_memcmp+0xa>
    800024aa:	00054503          	lbu	a0,0(a0)
    800024ae:	0005c783          	lbu	a5,0(a1)
    800024b2:	6422                	ld	s0,8(sp)
    800024b4:	9d1d                	subw	a0,a0,a5
    800024b6:	0141                	addi	sp,sp,16
    800024b8:	8082                	ret
    800024ba:	6422                	ld	s0,8(sp)
    800024bc:	4501                	li	a0,0
    800024be:	0141                	addi	sp,sp,16
    800024c0:	8082                	ret

00000000800024c2 <sbi_memchr>:
    800024c2:	1141                	addi	sp,sp,-16
    800024c4:	e422                	sd	s0,8(sp)
    800024c6:	0800                	addi	s0,sp,16
    800024c8:	c20d                	beqz	a2,800024ea <sbi_memchr+0x28>
    800024ca:	87aa                	mv	a5,a0
    800024cc:	0ff5f593          	andi	a1,a1,255
    800024d0:	962a                	add	a2,a2,a0
    800024d2:	a019                	j	800024d8 <sbi_memchr+0x16>
    800024d4:	00f60b63          	beq	a2,a5,800024ea <sbi_memchr+0x28>
    800024d8:	0007c703          	lbu	a4,0(a5)
    800024dc:	853e                	mv	a0,a5
    800024de:	0785                	addi	a5,a5,1
    800024e0:	feb71ae3          	bne	a4,a1,800024d4 <sbi_memchr+0x12>
    800024e4:	6422                	ld	s0,8(sp)
    800024e6:	0141                	addi	sp,sp,16
    800024e8:	8082                	ret
    800024ea:	6422                	ld	s0,8(sp)
    800024ec:	4501                	li	a0,0
    800024ee:	0141                	addi	sp,sp,16
    800024f0:	8082                	ret

00000000800024f2 <sbi_system_reset_get_device>:
    800024f2:	7139                	addi	sp,sp,-64
    800024f4:	f822                	sd	s0,48(sp)
    800024f6:	e852                	sd	s4,16(sp)
    800024f8:	fc06                	sd	ra,56(sp)
    800024fa:	f426                	sd	s1,40(sp)
    800024fc:	f04a                	sd	s2,32(sp)
    800024fe:	ec4e                	sd	s3,24(sp)
    80002500:	e456                	sd	s5,8(sp)
    80002502:	e05a                	sd	s6,0(sp)
    80002504:	0080                	addi	s0,sp,64
    80002506:	00017a17          	auipc	s4,0x17
    8000250a:	c3aa0a13          	addi	s4,s4,-966 # 80019140 <reset_devices_list>
    8000250e:	000a3483          	ld	s1,0(s4)
    80002512:	05448063          	beq	s1,s4,80002552 <sbi_system_reset_get_device+0x60>
    80002516:	892a                	mv	s2,a0
    80002518:	89ae                	mv	s3,a1
    8000251a:	4a81                	li	s5,0
    8000251c:	4b01                	li	s6,0
    8000251e:	ff04b783          	ld	a5,-16(s1)
    80002522:	85ce                	mv	a1,s3
    80002524:	854a                	mv	a0,s2
    80002526:	cb81                	beqz	a5,80002536 <sbi_system_reset_get_device+0x44>
    80002528:	9782                	jalr	a5
    8000252a:	c511                	beqz	a0,80002536 <sbi_system_reset_get_device+0x44>
    8000252c:	00aad563          	bge	s5,a0,80002536 <sbi_system_reset_get_device+0x44>
    80002530:	fd048b13          	addi	s6,s1,-48
    80002534:	8aaa                	mv	s5,a0
    80002536:	6084                	ld	s1,0(s1)
    80002538:	ff4493e3          	bne	s1,s4,8000251e <sbi_system_reset_get_device+0x2c>
    8000253c:	70e2                	ld	ra,56(sp)
    8000253e:	7442                	ld	s0,48(sp)
    80002540:	74a2                	ld	s1,40(sp)
    80002542:	7902                	ld	s2,32(sp)
    80002544:	69e2                	ld	s3,24(sp)
    80002546:	6a42                	ld	s4,16(sp)
    80002548:	6aa2                	ld	s5,8(sp)
    8000254a:	855a                	mv	a0,s6
    8000254c:	6b02                	ld	s6,0(sp)
    8000254e:	6121                	addi	sp,sp,64
    80002550:	8082                	ret
    80002552:	4b01                	li	s6,0
    80002554:	b7e5                	j	8000253c <sbi_system_reset_get_device+0x4a>

0000000080002556 <sbi_system_reset_add_device>:
    80002556:	1141                	addi	sp,sp,-16
    80002558:	e422                	sd	s0,8(sp)
    8000255a:	0800                	addi	s0,sp,16
    8000255c:	cd11                	beqz	a0,80002578 <sbi_system_reset_add_device+0x22>
    8000255e:	711c                	ld	a5,32(a0)
    80002560:	cf81                	beqz	a5,80002578 <sbi_system_reset_add_device+0x22>
    80002562:	00017797          	auipc	a5,0x17
    80002566:	bde78793          	addi	a5,a5,-1058 # 80019140 <reset_devices_list>
    8000256a:	6398                	ld	a4,0(a5)
    8000256c:	03050693          	addi	a3,a0,48
    80002570:	fd1c                	sd	a5,56(a0)
    80002572:	f918                	sd	a4,48(a0)
    80002574:	e394                	sd	a3,0(a5)
    80002576:	e714                	sd	a3,8(a4)
    80002578:	6422                	ld	s0,8(sp)
    8000257a:	0141                	addi	sp,sp,16
    8000257c:	8082                	ret

000000008000257e <sbi_system_reset_supported>:
    8000257e:	7139                	addi	sp,sp,-64
    80002580:	f822                	sd	s0,48(sp)
    80002582:	e852                	sd	s4,16(sp)
    80002584:	fc06                	sd	ra,56(sp)
    80002586:	f426                	sd	s1,40(sp)
    80002588:	f04a                	sd	s2,32(sp)
    8000258a:	ec4e                	sd	s3,24(sp)
    8000258c:	e456                	sd	s5,8(sp)
    8000258e:	e05a                	sd	s6,0(sp)
    80002590:	0080                	addi	s0,sp,64
    80002592:	00017a17          	auipc	s4,0x17
    80002596:	baea0a13          	addi	s4,s4,-1106 # 80019140 <reset_devices_list>
    8000259a:	000a3483          	ld	s1,0(s4)
    8000259e:	05448163          	beq	s1,s4,800025e0 <sbi_system_reset_supported+0x62>
    800025a2:	892a                	mv	s2,a0
    800025a4:	89ae                	mv	s3,a1
    800025a6:	4b01                	li	s6,0
    800025a8:	4a81                	li	s5,0
    800025aa:	ff04b783          	ld	a5,-16(s1)
    800025ae:	85ce                	mv	a1,s3
    800025b0:	854a                	mv	a0,s2
    800025b2:	cb81                	beqz	a5,800025c2 <sbi_system_reset_supported+0x44>
    800025b4:	9782                	jalr	a5
    800025b6:	c511                	beqz	a0,800025c2 <sbi_system_reset_supported+0x44>
    800025b8:	00aad563          	bge	s5,a0,800025c2 <sbi_system_reset_supported+0x44>
    800025bc:	fd048b13          	addi	s6,s1,-48
    800025c0:	8aaa                	mv	s5,a0
    800025c2:	6084                	ld	s1,0(s1)
    800025c4:	ff4493e3          	bne	s1,s4,800025aa <sbi_system_reset_supported+0x2c>
    800025c8:	01603533          	snez	a0,s6
    800025cc:	70e2                	ld	ra,56(sp)
    800025ce:	7442                	ld	s0,48(sp)
    800025d0:	74a2                	ld	s1,40(sp)
    800025d2:	7902                	ld	s2,32(sp)
    800025d4:	69e2                	ld	s3,24(sp)
    800025d6:	6a42                	ld	s4,16(sp)
    800025d8:	6aa2                	ld	s5,8(sp)
    800025da:	6b02                	ld	s6,0(sp)
    800025dc:	6121                	addi	sp,sp,64
    800025de:	8082                	ret
    800025e0:	4501                	li	a0,0
    800025e2:	b7ed                	j	800025cc <sbi_system_reset_supported+0x4e>

00000000800025e4 <sbi_system_reset>:
    800025e4:	7159                	addi	sp,sp,-112
    800025e6:	f0a2                	sd	s0,96(sp)
    800025e8:	f45e                	sd	s7,40(sp)
    800025ea:	f062                	sd	s8,32(sp)
    800025ec:	f486                	sd	ra,104(sp)
    800025ee:	eca6                	sd	s1,88(sp)
    800025f0:	e8ca                	sd	s2,80(sp)
    800025f2:	e4ce                	sd	s3,72(sp)
    800025f4:	e0d2                	sd	s4,64(sp)
    800025f6:	fc56                	sd	s5,56(sp)
    800025f8:	f85a                	sd	s6,48(sp)
    800025fa:	ec66                	sd	s9,24(sp)
    800025fc:	1880                	addi	s0,sp,112
    800025fe:	8baa                	mv	s7,a0
    80002600:	8c2e                	mv	s8,a1
    80002602:	f1402973          	csrr	s2,mhartid
    80002606:	00090b1b          	sext.w	s6,s2
    8000260a:	f1402773          	csrr	a4,mhartid
    8000260e:	02071793          	slli	a5,a4,0x20
    80002612:	01d7d713          	srli	a4,a5,0x1d
    80002616:	00018797          	auipc	a5,0x18
    8000261a:	cfa7b783          	ld	a5,-774(a5) # 8001a310 <_GLOBAL_OFFSET_TABLE_+0x80>
    8000261e:	97ba                	add	a5,a5,a4
    80002620:	0007b983          	ld	s3,0(a5)
    80002624:	34002cf3          	csrr	s9,mscratch
    80002628:	4481                	li	s1,0
    8000262a:	f9840a13          	addi	s4,s0,-104
    8000262e:	1902                	slli	s2,s2,0x20
    80002630:	8652                	mv	a2,s4
    80002632:	85a6                	mv	a1,s1
    80002634:	854e                	mv	a0,s3
    80002636:	02095913          	srli	s2,s2,0x20
    8000263a:	4a85                	li	s5,1
    8000263c:	258070ef          	jal	ra,80009894 <sbi_hsm_hart_interruptible_mask>
    80002640:	e51d                	bnez	a0,8000266e <sbi_system_reset+0x8a>
    80002642:	f9843503          	ld	a0,-104(s0)
    80002646:	00996b63          	bltu	s2,s1,8000265c <sbi_system_reset+0x78>
    8000264a:	409b07bb          	subw	a5,s6,s1
    8000264e:	00fa97b3          	sll	a5,s5,a5
    80002652:	fff7c793          	not	a5,a5
    80002656:	8d7d                	and	a0,a0,a5
    80002658:	f8a43c23          	sd	a0,-104(s0)
    8000265c:	e11d                	bnez	a0,80002682 <sbi_system_reset+0x9e>
    8000265e:	04048493          	addi	s1,s1,64
    80002662:	8652                	mv	a2,s4
    80002664:	85a6                	mv	a1,s1
    80002666:	854e                	mv	a0,s3
    80002668:	22c070ef          	jal	ra,80009894 <sbi_hsm_hart_interruptible_mask>
    8000266c:	d979                	beqz	a0,80002642 <sbi_system_reset+0x5e>
    8000266e:	4581                	li	a1,0
    80002670:	8566                	mv	a0,s9
    80002672:	52a070ef          	jal	ra,80009b9c <sbi_hsm_hart_stop>
    80002676:	0889a783          	lw	a5,136(s3)
    8000267a:	eb91                	bnez	a5,8000268e <sbi_system_reset+0xaa>
    8000267c:	8566                	mv	a0,s9
    8000267e:	e82fe0ef          	jal	ra,80000d00 <sbi_exit>
    80002682:	85a6                	mv	a1,s1
    80002684:	943fe0ef          	jal	ra,80000fc6 <sbi_ipi_send_halt>
    80002688:	04048493          	addi	s1,s1,64
    8000268c:	bfd9                	j	80002662 <sbi_system_reset+0x7e>
    8000268e:	85e2                	mv	a1,s8
    80002690:	855e                	mv	a0,s7
    80002692:	e61ff0ef          	jal	ra,800024f2 <sbi_system_reset_get_device>
    80002696:	d17d                	beqz	a0,8000267c <sbi_system_reset+0x98>
    80002698:	751c                	ld	a5,40(a0)
    8000269a:	85e2                	mv	a1,s8
    8000269c:	855e                	mv	a0,s7
    8000269e:	9782                	jalr	a5
    800026a0:	bff1                	j	8000267c <sbi_system_reset+0x98>

00000000800026a2 <get_ticks>:
    800026a2:	1141                	addi	sp,sp,-16
    800026a4:	e422                	sd	s0,8(sp)
    800026a6:	0800                	addi	s0,sp,16
    800026a8:	c0102573          	rdtime	a0
    800026ac:	6422                	ld	s0,8(sp)
    800026ae:	0141                	addi	sp,sp,16
    800026b0:	8082                	ret

00000000800026b2 <nop_delay_fn>:
    800026b2:	1141                	addi	sp,sp,-16
    800026b4:	e422                	sd	s0,8(sp)
    800026b6:	0800                	addi	s0,sp,16
    800026b8:	6422                	ld	s0,8(sp)
    800026ba:	0141                	addi	sp,sp,16
    800026bc:	8082                	ret

00000000800026be <sbi_timer_delay_loop>:
    800026be:	7139                	addi	sp,sp,-64
    800026c0:	f822                	sd	s0,48(sp)
    800026c2:	f04a                	sd	s2,32(sp)
    800026c4:	fc06                	sd	ra,56(sp)
    800026c6:	f426                	sd	s1,40(sp)
    800026c8:	ec4e                	sd	s3,24(sp)
    800026ca:	e852                	sd	s4,16(sp)
    800026cc:	e456                	sd	s5,8(sp)
    800026ce:	e05a                	sd	s6,0(sp)
    800026d0:	0080                	addi	s0,sp,64
    800026d2:	0003b917          	auipc	s2,0x3b
    800026d6:	f8690913          	addi	s2,s2,-122 # 8003d658 <timer_dev>
    800026da:	00093783          	ld	a5,0(s2)
    800026de:	c7b9                	beqz	a5,8000272c <sbi_timer_delay_loop+0x6e>
    800026e0:	00893783          	ld	a5,8(s2)
    800026e4:	c7a1                	beqz	a5,8000272c <sbi_timer_delay_loop+0x6e>
    800026e6:	84aa                	mv	s1,a0
    800026e8:	8b2e                	mv	s6,a1
    800026ea:	89b2                	mv	s3,a2
    800026ec:	8a36                	mv	s4,a3
    800026ee:	9782                	jalr	a5
    800026f0:	00093783          	ld	a5,0(s2)
    800026f4:	8aaa                	mv	s5,a0
    800026f6:	739c                	ld	a5,32(a5)
    800026f8:	02f484b3          	mul	s1,s1,a5
    800026fc:	0364d4b3          	divu	s1,s1,s6
    80002700:	00099463          	bnez	s3,80002708 <sbi_timer_delay_loop+0x4a>
    80002704:	a83d                	j	80002742 <sbi_timer_delay_loop+0x84>
    80002706:	9982                	jalr	s3
    80002708:	00893783          	ld	a5,8(s2)
    8000270c:	9782                	jalr	a5
    8000270e:	415507b3          	sub	a5,a0,s5
    80002712:	8552                	mv	a0,s4
    80002714:	fe97e9e3          	bltu	a5,s1,80002706 <sbi_timer_delay_loop+0x48>
    80002718:	70e2                	ld	ra,56(sp)
    8000271a:	7442                	ld	s0,48(sp)
    8000271c:	74a2                	ld	s1,40(sp)
    8000271e:	7902                	ld	s2,32(sp)
    80002720:	69e2                	ld	s3,24(sp)
    80002722:	6a42                	ld	s4,16(sp)
    80002724:	6aa2                	ld	s5,8(sp)
    80002726:	6b02                	ld	s6,0(sp)
    80002728:	6121                	addi	sp,sp,64
    8000272a:	8082                	ret
    8000272c:	00014597          	auipc	a1,0x14
    80002730:	eec58593          	addi	a1,a1,-276 # 80016618 <__func__.0>
    80002734:	00014517          	auipc	a0,0x14
    80002738:	ebc50513          	addi	a0,a0,-324 # 800165f0 <__func__.0+0x58>
    8000273c:	77d020ef          	jal	ra,800056b8 <sbi_printf>
    80002740:	bfe1                	j	80002718 <sbi_timer_delay_loop+0x5a>
    80002742:	00000997          	auipc	s3,0x0
    80002746:	f7098993          	addi	s3,s3,-144 # 800026b2 <nop_delay_fn>
    8000274a:	bf7d                	j	80002708 <sbi_timer_delay_loop+0x4a>

000000008000274c <sbi_timer_value>:
    8000274c:	0003b797          	auipc	a5,0x3b
    80002750:	f147b783          	ld	a5,-236(a5) # 8003d660 <get_time_val>
    80002754:	cb91                	beqz	a5,80002768 <sbi_timer_value+0x1c>
    80002756:	1141                	addi	sp,sp,-16
    80002758:	e022                	sd	s0,0(sp)
    8000275a:	e406                	sd	ra,8(sp)
    8000275c:	0800                	addi	s0,sp,16
    8000275e:	9782                	jalr	a5
    80002760:	60a2                	ld	ra,8(sp)
    80002762:	6402                	ld	s0,0(sp)
    80002764:	0141                	addi	sp,sp,16
    80002766:	8082                	ret
    80002768:	4501                	li	a0,0
    8000276a:	8082                	ret

000000008000276c <sbi_timer_virt_value>:
    8000276c:	1101                	addi	sp,sp,-32
    8000276e:	e822                	sd	s0,16(sp)
    80002770:	ec06                	sd	ra,24(sp)
    80002772:	e426                	sd	s1,8(sp)
    80002774:	1000                	addi	s0,sp,32
    80002776:	340024f3          	csrr	s1,mscratch
    8000277a:	0003b797          	auipc	a5,0x3b
    8000277e:	ede78793          	addi	a5,a5,-290 # 8003d658 <timer_dev>
    80002782:	6b98                	ld	a4,16(a5)
    80002784:	679c                	ld	a5,8(a5)
    80002786:	4501                	li	a0,0
    80002788:	94ba                	add	s1,s1,a4
    8000278a:	c391                	beqz	a5,8000278e <sbi_timer_virt_value+0x22>
    8000278c:	9782                	jalr	a5
    8000278e:	609c                	ld	a5,0(s1)
    80002790:	60e2                	ld	ra,24(sp)
    80002792:	6442                	ld	s0,16(sp)
    80002794:	64a2                	ld	s1,8(sp)
    80002796:	953e                	add	a0,a0,a5
    80002798:	6105                	addi	sp,sp,32
    8000279a:	8082                	ret

000000008000279c <sbi_timer_get_delta>:
    8000279c:	1141                	addi	sp,sp,-16
    8000279e:	e422                	sd	s0,8(sp)
    800027a0:	0800                	addi	s0,sp,16
    800027a2:	34002773          	csrr	a4,mscratch
    800027a6:	6422                	ld	s0,8(sp)
    800027a8:	0003b797          	auipc	a5,0x3b
    800027ac:	ec07b783          	ld	a5,-320(a5) # 8003d668 <time_delta_off>
    800027b0:	97ba                	add	a5,a5,a4
    800027b2:	6388                	ld	a0,0(a5)
    800027b4:	0141                	addi	sp,sp,16
    800027b6:	8082                	ret

00000000800027b8 <sbi_timer_set_delta>:
    800027b8:	1141                	addi	sp,sp,-16
    800027ba:	e422                	sd	s0,8(sp)
    800027bc:	0800                	addi	s0,sp,16
    800027be:	34002773          	csrr	a4,mscratch
    800027c2:	0003b797          	auipc	a5,0x3b
    800027c6:	ea67b783          	ld	a5,-346(a5) # 8003d668 <time_delta_off>
    800027ca:	97ba                	add	a5,a5,a4
    800027cc:	e388                	sd	a0,0(a5)
    800027ce:	6422                	ld	s0,8(sp)
    800027d0:	0141                	addi	sp,sp,16
    800027d2:	8082                	ret

00000000800027d4 <sbi_timer_set_delta_upper>:
    800027d4:	1141                	addi	sp,sp,-16
    800027d6:	e422                	sd	s0,8(sp)
    800027d8:	0800                	addi	s0,sp,16
    800027da:	340027f3          	csrr	a5,mscratch
    800027de:	0003b717          	auipc	a4,0x3b
    800027e2:	e8a73703          	ld	a4,-374(a4) # 8003d668 <time_delta_off>
    800027e6:	97ba                	add	a5,a5,a4
    800027e8:	c3c8                	sw	a0,4(a5)
    800027ea:	6422                	ld	s0,8(sp)
    800027ec:	0141                	addi	sp,sp,16
    800027ee:	8082                	ret

00000000800027f0 <sbi_timer_event_start>:
    800027f0:	1101                	addi	sp,sp,-32
    800027f2:	e822                	sd	s0,16(sp)
    800027f4:	e426                	sd	s1,8(sp)
    800027f6:	ec06                	sd	ra,24(sp)
    800027f8:	1000                	addi	s0,sp,32
    800027fa:	84aa                	mv	s1,a0
    800027fc:	4515                	li	a0,5
    800027fe:	e82ff0ef          	jal	ra,80001e80 <sbi_pmu_ctr_incr_fw>
    80002802:	34002573          	csrr	a0,mscratch
    80002806:	4591                	li	a1,4
    80002808:	47d040ef          	jal	ra,80007484 <sbi_hart_has_extension>
    8000280c:	cd01                	beqz	a0,80002824 <sbi_timer_event_start+0x34>
    8000280e:	14d49073          	csrw	0x14d,s1
    80002812:	08000793          	li	a5,128
    80002816:	3047a073          	csrs	mie,a5
    8000281a:	60e2                	ld	ra,24(sp)
    8000281c:	6442                	ld	s0,16(sp)
    8000281e:	64a2                	ld	s1,8(sp)
    80002820:	6105                	addi	sp,sp,32
    80002822:	8082                	ret
    80002824:	0003b797          	auipc	a5,0x3b
    80002828:	e347b783          	ld	a5,-460(a5) # 8003d658 <timer_dev>
    8000282c:	d3fd                	beqz	a5,80002812 <sbi_timer_event_start+0x22>
    8000282e:	7b9c                	ld	a5,48(a5)
    80002830:	d3ed                	beqz	a5,80002812 <sbi_timer_event_start+0x22>
    80002832:	8526                	mv	a0,s1
    80002834:	9782                	jalr	a5
    80002836:	02000793          	li	a5,32
    8000283a:	3447b073          	csrc	mip,a5
    8000283e:	08000793          	li	a5,128
    80002842:	3047a073          	csrs	mie,a5
    80002846:	60e2                	ld	ra,24(sp)
    80002848:	6442                	ld	s0,16(sp)
    8000284a:	64a2                	ld	s1,8(sp)
    8000284c:	6105                	addi	sp,sp,32
    8000284e:	8082                	ret

0000000080002850 <sbi_timer_process>:
    80002850:	1141                	addi	sp,sp,-16
    80002852:	e022                	sd	s0,0(sp)
    80002854:	e406                	sd	ra,8(sp)
    80002856:	0800                	addi	s0,sp,16
    80002858:	08000793          	li	a5,128
    8000285c:	3047b073          	csrc	mie,a5
    80002860:	34002573          	csrr	a0,mscratch
    80002864:	4591                	li	a1,4
    80002866:	41f040ef          	jal	ra,80007484 <sbi_hart_has_extension>
    8000286a:	e509                	bnez	a0,80002874 <sbi_timer_process+0x24>
    8000286c:	02000793          	li	a5,32
    80002870:	3447a073          	csrs	mip,a5
    80002874:	60a2                	ld	ra,8(sp)
    80002876:	6402                	ld	s0,0(sp)
    80002878:	0141                	addi	sp,sp,16
    8000287a:	8082                	ret

000000008000287c <sbi_timer_get_device>:
    8000287c:	1141                	addi	sp,sp,-16
    8000287e:	e422                	sd	s0,8(sp)
    80002880:	0800                	addi	s0,sp,16
    80002882:	6422                	ld	s0,8(sp)
    80002884:	0003b517          	auipc	a0,0x3b
    80002888:	dd453503          	ld	a0,-556(a0) # 8003d658 <timer_dev>
    8000288c:	0141                	addi	sp,sp,16
    8000288e:	8082                	ret

0000000080002890 <sbi_timer_set_device>:
    80002890:	1141                	addi	sp,sp,-16
    80002892:	e422                	sd	s0,8(sp)
    80002894:	0800                	addi	s0,sp,16
    80002896:	c519                	beqz	a0,800028a4 <sbi_timer_set_device+0x14>
    80002898:	0003b797          	auipc	a5,0x3b
    8000289c:	dc078793          	addi	a5,a5,-576 # 8003d658 <timer_dev>
    800028a0:	6398                	ld	a4,0(a5)
    800028a2:	c701                	beqz	a4,800028aa <sbi_timer_set_device+0x1a>
    800028a4:	6422                	ld	s0,8(sp)
    800028a6:	0141                	addi	sp,sp,16
    800028a8:	8082                	ret
    800028aa:	6798                	ld	a4,8(a5)
    800028ac:	e388                	sd	a0,0(a5)
    800028ae:	fb7d                	bnez	a4,800028a4 <sbi_timer_set_device+0x14>
    800028b0:	7518                	ld	a4,40(a0)
    800028b2:	db6d                	beqz	a4,800028a4 <sbi_timer_set_device+0x14>
    800028b4:	e798                	sd	a4,8(a5)
    800028b6:	b7fd                	j	800028a4 <sbi_timer_set_device+0x14>

00000000800028b8 <sbi_timer_init>:
    800028b8:	7179                	addi	sp,sp,-48
    800028ba:	f022                	sd	s0,32(sp)
    800028bc:	ec26                	sd	s1,24(sp)
    800028be:	e84a                	sd	s2,16(sp)
    800028c0:	f406                	sd	ra,40(sp)
    800028c2:	e44e                	sd	s3,8(sp)
    800028c4:	e052                	sd	s4,0(sp)
    800028c6:	1800                	addi	s0,sp,48
    800028c8:	03053983          	ld	s3,48(a0)
    800028cc:	84aa                	mv	s1,a0
    800028ce:	892e                	mv	s2,a1
    800028d0:	e995                	bnez	a1,80002904 <sbi_timer_init+0x4c>
    800028d2:	0003b797          	auipc	a5,0x3b
    800028d6:	d967b783          	ld	a5,-618(a5) # 8003d668 <time_delta_off>
    800028da:	cfa9                	beqz	a5,80002934 <sbi_timer_init+0x7c>
    800028dc:	94be                	add	s1,s1,a5
    800028de:	0004b023          	sd	zero,0(s1)
    800028e2:	4501                	li	a0,0
    800028e4:	00098863          	beqz	s3,800028f4 <sbi_timer_init+0x3c>
    800028e8:	0589b783          	ld	a5,88(s3)
    800028ec:	67dc                	ld	a5,136(a5)
    800028ee:	c399                	beqz	a5,800028f4 <sbi_timer_init+0x3c>
    800028f0:	854a                	mv	a0,s2
    800028f2:	9782                	jalr	a5
    800028f4:	70a2                	ld	ra,40(sp)
    800028f6:	7402                	ld	s0,32(sp)
    800028f8:	64e2                	ld	s1,24(sp)
    800028fa:	6942                	ld	s2,16(sp)
    800028fc:	69a2                	ld	s3,8(sp)
    800028fe:	6a02                	ld	s4,0(sp)
    80002900:	6145                	addi	sp,sp,48
    80002902:	8082                	ret
    80002904:	4521                	li	a0,8
    80002906:	8afff0ef          	jal	ra,800021b4 <sbi_scratch_alloc_offset>
    8000290a:	0003ba17          	auipc	s4,0x3b
    8000290e:	d4ea0a13          	addi	s4,s4,-690 # 8003d658 <timer_dev>
    80002912:	00aa3823          	sd	a0,16(s4)
    80002916:	cd19                	beqz	a0,80002934 <sbi_timer_init+0x7c>
    80002918:	4585                	li	a1,1
    8000291a:	8526                	mv	a0,s1
    8000291c:	369040ef          	jal	ra,80007484 <sbi_hart_has_extension>
    80002920:	010a3783          	ld	a5,16(s4)
    80002924:	dd45                	beqz	a0,800028dc <sbi_timer_init+0x24>
    80002926:	00000717          	auipc	a4,0x0
    8000292a:	d7c70713          	addi	a4,a4,-644 # 800026a2 <get_ticks>
    8000292e:	00ea3423          	sd	a4,8(s4)
    80002932:	b76d                	j	800028dc <sbi_timer_init+0x24>
    80002934:	c1200513          	li	a0,-1006
    80002938:	bf75                	j	800028f4 <sbi_timer_init+0x3c>

000000008000293a <sbi_timer_exit>:
    8000293a:	1101                	addi	sp,sp,-32
    8000293c:	e822                	sd	s0,16(sp)
    8000293e:	e426                	sd	s1,8(sp)
    80002940:	ec06                	sd	ra,24(sp)
    80002942:	1000                	addi	s0,sp,32
    80002944:	0003b797          	auipc	a5,0x3b
    80002948:	d147b783          	ld	a5,-748(a5) # 8003d658 <timer_dev>
    8000294c:	84aa                	mv	s1,a0
    8000294e:	c781                	beqz	a5,80002956 <sbi_timer_exit+0x1c>
    80002950:	7f9c                	ld	a5,56(a5)
    80002952:	c391                	beqz	a5,80002956 <sbi_timer_exit+0x1c>
    80002954:	9782                	jalr	a5
    80002956:	02000793          	li	a5,32
    8000295a:	3447b073          	csrc	mip,a5
    8000295e:	08000793          	li	a5,128
    80002962:	3047b073          	csrc	mie,a5
    80002966:	789c                	ld	a5,48(s1)
    80002968:	c789                	beqz	a5,80002972 <sbi_timer_exit+0x38>
    8000296a:	6fbc                	ld	a5,88(a5)
    8000296c:	6bdc                	ld	a5,144(a5)
    8000296e:	c391                	beqz	a5,80002972 <sbi_timer_exit+0x38>
    80002970:	9782                	jalr	a5
    80002972:	60e2                	ld	ra,24(sp)
    80002974:	6442                	ld	s0,16(sp)
    80002976:	64a2                	ld	s1,8(sp)
    80002978:	6105                	addi	sp,sp,32
    8000297a:	8082                	ret

000000008000297c <sbi_tlb_local_sfence_vma>:
    8000297c:	1101                	addi	sp,sp,-32
    8000297e:	e822                	sd	s0,16(sp)
    80002980:	ec06                	sd	ra,24(sp)
    80002982:	e426                	sd	s1,8(sp)
    80002984:	e04a                	sd	s2,0(sp)
    80002986:	1000                	addi	s0,sp,32
    80002988:	00053903          	ld	s2,0(a0)
    8000298c:	6504                	ld	s1,8(a0)
    8000298e:	452d                	li	a0,11
    80002990:	cf0ff0ef          	jal	ra,80001e80 <sbi_pmu_ctr_incr_fw>
    80002994:	009967b3          	or	a5,s2,s1
    80002998:	c785                	beqz	a5,800029c0 <sbi_tlb_local_sfence_vma+0x44>
    8000299a:	57fd                	li	a5,-1
    8000299c:	02f48263          	beq	s1,a5,800029c0 <sbi_tlb_local_sfence_vma+0x44>
    800029a0:	4781                	li	a5,0
    800029a2:	6685                	lui	a3,0x1
    800029a4:	c881                	beqz	s1,800029b4 <sbi_tlb_local_sfence_vma+0x38>
    800029a6:	00f90733          	add	a4,s2,a5
    800029aa:	12070073          	sfence.vma	a4
    800029ae:	97b6                	add	a5,a5,a3
    800029b0:	fe97ebe3          	bltu	a5,s1,800029a6 <sbi_tlb_local_sfence_vma+0x2a>
    800029b4:	60e2                	ld	ra,24(sp)
    800029b6:	6442                	ld	s0,16(sp)
    800029b8:	64a2                	ld	s1,8(sp)
    800029ba:	6902                	ld	s2,0(sp)
    800029bc:	6105                	addi	sp,sp,32
    800029be:	8082                	ret
    800029c0:	12000073          	sfence.vma
    800029c4:	60e2                	ld	ra,24(sp)
    800029c6:	6442                	ld	s0,16(sp)
    800029c8:	64a2                	ld	s1,8(sp)
    800029ca:	6902                	ld	s2,0(sp)
    800029cc:	6105                	addi	sp,sp,32
    800029ce:	8082                	ret

00000000800029d0 <sbi_tlb_local_sfence_vma_asid>:
    800029d0:	7179                	addi	sp,sp,-48
    800029d2:	f022                	sd	s0,32(sp)
    800029d4:	f406                	sd	ra,40(sp)
    800029d6:	ec26                	sd	s1,24(sp)
    800029d8:	e84a                	sd	s2,16(sp)
    800029da:	e44e                	sd	s3,8(sp)
    800029dc:	1800                	addi	s0,sp,48
    800029de:	00053903          	ld	s2,0(a0)
    800029e2:	6504                	ld	s1,8(a0)
    800029e4:	87aa                	mv	a5,a0
    800029e6:	4535                	li	a0,13
    800029e8:	0107b983          	ld	s3,16(a5)
    800029ec:	c94ff0ef          	jal	ra,80001e80 <sbi_pmu_ctr_incr_fw>
    800029f0:	009967b3          	or	a5,s2,s1
    800029f4:	c78d                	beqz	a5,80002a1e <sbi_tlb_local_sfence_vma_asid+0x4e>
    800029f6:	57fd                	li	a5,-1
    800029f8:	02f48c63          	beq	s1,a5,80002a30 <sbi_tlb_local_sfence_vma_asid+0x60>
    800029fc:	4781                	li	a5,0
    800029fe:	6685                	lui	a3,0x1
    80002a00:	c881                	beqz	s1,80002a10 <sbi_tlb_local_sfence_vma_asid+0x40>
    80002a02:	00f90733          	add	a4,s2,a5
    80002a06:	13370073          	sfence.vma	a4,s3
    80002a0a:	97b6                	add	a5,a5,a3
    80002a0c:	fe97ebe3          	bltu	a5,s1,80002a02 <sbi_tlb_local_sfence_vma_asid+0x32>
    80002a10:	70a2                	ld	ra,40(sp)
    80002a12:	7402                	ld	s0,32(sp)
    80002a14:	64e2                	ld	s1,24(sp)
    80002a16:	6942                	ld	s2,16(sp)
    80002a18:	69a2                	ld	s3,8(sp)
    80002a1a:	6145                	addi	sp,sp,48
    80002a1c:	8082                	ret
    80002a1e:	12000073          	sfence.vma
    80002a22:	70a2                	ld	ra,40(sp)
    80002a24:	7402                	ld	s0,32(sp)
    80002a26:	64e2                	ld	s1,24(sp)
    80002a28:	6942                	ld	s2,16(sp)
    80002a2a:	69a2                	ld	s3,8(sp)
    80002a2c:	6145                	addi	sp,sp,48
    80002a2e:	8082                	ret
    80002a30:	13300073          	sfence.vma	zero,s3
    80002a34:	70a2                	ld	ra,40(sp)
    80002a36:	7402                	ld	s0,32(sp)
    80002a38:	64e2                	ld	s1,24(sp)
    80002a3a:	6942                	ld	s2,16(sp)
    80002a3c:	69a2                	ld	s3,8(sp)
    80002a3e:	6145                	addi	sp,sp,48
    80002a40:	8082                	ret

0000000080002a42 <sbi_tlb_local_fence_i>:
    80002a42:	1141                	addi	sp,sp,-16
    80002a44:	e022                	sd	s0,0(sp)
    80002a46:	e406                	sd	ra,8(sp)
    80002a48:	0800                	addi	s0,sp,16
    80002a4a:	4525                	li	a0,9
    80002a4c:	c34ff0ef          	jal	ra,80001e80 <sbi_pmu_ctr_incr_fw>
    80002a50:	0000100f          	fence.i
    80002a54:	60a2                	ld	ra,8(sp)
    80002a56:	6402                	ld	s0,0(sp)
    80002a58:	0141                	addi	sp,sp,16
    80002a5a:	8082                	ret

0000000080002a5c <sbi_tlb_local_hfence_vvma>:
    80002a5c:	7139                	addi	sp,sp,-64
    80002a5e:	f822                	sd	s0,48(sp)
    80002a60:	fc06                	sd	ra,56(sp)
    80002a62:	f426                	sd	s1,40(sp)
    80002a64:	f04a                	sd	s2,32(sp)
    80002a66:	ec4e                	sd	s3,24(sp)
    80002a68:	e852                	sd	s4,16(sp)
    80002a6a:	e456                	sd	s5,8(sp)
    80002a6c:	0080                	addi	s0,sp,64
    80002a6e:	87aa                	mv	a5,a0
    80002a70:	01853983          	ld	s3,24(a0)
    80002a74:	454d                	li	a0,19
    80002a76:	0007ba03          	ld	s4,0(a5)
    80002a7a:	0087b903          	ld	s2,8(a5)
    80002a7e:	c02ff0ef          	jal	ra,80001e80 <sbi_pmu_ctr_incr_fw>
    80002a82:	03fff7b7          	lui	a5,0x3fff
    80002a86:	1782                	slli	a5,a5,0x20
    80002a88:	19b2                	slli	s3,s3,0x2c
    80002a8a:	00f9f9b3          	and	s3,s3,a5
    80002a8e:	680999f3          	csrrw	s3,0x680,s3
    80002a92:	012a67b3          	or	a5,s4,s2
    80002a96:	cb95                	beqz	a5,80002aca <sbi_tlb_local_hfence_vvma+0x6e>
    80002a98:	57fd                	li	a5,-1
    80002a9a:	02f90863          	beq	s2,a5,80002aca <sbi_tlb_local_hfence_vvma+0x6e>
    80002a9e:	4481                	li	s1,0
    80002aa0:	6a85                	lui	s5,0x1
    80002aa2:	00090963          	beqz	s2,80002ab4 <sbi_tlb_local_hfence_vvma+0x58>
    80002aa6:	009a0533          	add	a0,s4,s1
    80002aaa:	94d6                	add	s1,s1,s5
    80002aac:	595060ef          	jal	ra,80009840 <__sbi_hfence_vvma_va>
    80002ab0:	ff24ebe3          	bltu	s1,s2,80002aa6 <sbi_tlb_local_hfence_vvma+0x4a>
    80002ab4:	68099073          	csrw	0x680,s3
    80002ab8:	70e2                	ld	ra,56(sp)
    80002aba:	7442                	ld	s0,48(sp)
    80002abc:	74a2                	ld	s1,40(sp)
    80002abe:	7902                	ld	s2,32(sp)
    80002ac0:	69e2                	ld	s3,24(sp)
    80002ac2:	6a42                	ld	s4,16(sp)
    80002ac4:	6aa2                	ld	s5,8(sp)
    80002ac6:	6121                	addi	sp,sp,64
    80002ac8:	8082                	ret
    80002aca:	57f060ef          	jal	ra,80009848 <__sbi_hfence_vvma_all>
    80002ace:	b7dd                	j	80002ab4 <sbi_tlb_local_hfence_vvma+0x58>

0000000080002ad0 <sbi_tlb_local_hfence_gvma>:
    80002ad0:	7179                	addi	sp,sp,-48
    80002ad2:	f022                	sd	s0,32(sp)
    80002ad4:	f406                	sd	ra,40(sp)
    80002ad6:	ec26                	sd	s1,24(sp)
    80002ad8:	e84a                	sd	s2,16(sp)
    80002ada:	e44e                	sd	s3,8(sp)
    80002adc:	e052                	sd	s4,0(sp)
    80002ade:	1800                	addi	s0,sp,48
    80002ae0:	00053983          	ld	s3,0(a0)
    80002ae4:	00853903          	ld	s2,8(a0)
    80002ae8:	453d                	li	a0,15
    80002aea:	b96ff0ef          	jal	ra,80001e80 <sbi_pmu_ctr_incr_fw>
    80002aee:	0129e7b3          	or	a5,s3,s2
    80002af2:	cb85                	beqz	a5,80002b22 <sbi_tlb_local_hfence_gvma+0x52>
    80002af4:	57fd                	li	a5,-1
    80002af6:	02f90663          	beq	s2,a5,80002b22 <sbi_tlb_local_hfence_gvma+0x52>
    80002afa:	4481                	li	s1,0
    80002afc:	6a05                	lui	s4,0x1
    80002afe:	00090a63          	beqz	s2,80002b12 <sbi_tlb_local_hfence_gvma+0x42>
    80002b02:	00998533          	add	a0,s3,s1
    80002b06:	8109                	srli	a0,a0,0x2
    80002b08:	94d2                	add	s1,s1,s4
    80002b0a:	517060ef          	jal	ra,80009820 <__sbi_hfence_gvma_gpa>
    80002b0e:	ff24eae3          	bltu	s1,s2,80002b02 <sbi_tlb_local_hfence_gvma+0x32>
    80002b12:	70a2                	ld	ra,40(sp)
    80002b14:	7402                	ld	s0,32(sp)
    80002b16:	64e2                	ld	s1,24(sp)
    80002b18:	6942                	ld	s2,16(sp)
    80002b1a:	69a2                	ld	s3,8(sp)
    80002b1c:	6a02                	ld	s4,0(sp)
    80002b1e:	6145                	addi	sp,sp,48
    80002b20:	8082                	ret
    80002b22:	507060ef          	jal	ra,80009828 <__sbi_hfence_gvma_all>
    80002b26:	70a2                	ld	ra,40(sp)
    80002b28:	7402                	ld	s0,32(sp)
    80002b2a:	64e2                	ld	s1,24(sp)
    80002b2c:	6942                	ld	s2,16(sp)
    80002b2e:	69a2                	ld	s3,8(sp)
    80002b30:	6a02                	ld	s4,0(sp)
    80002b32:	6145                	addi	sp,sp,48
    80002b34:	8082                	ret

0000000080002b36 <sbi_tlb_local_hfence_vvma_asid>:
    80002b36:	7139                	addi	sp,sp,-64
    80002b38:	f822                	sd	s0,48(sp)
    80002b3a:	fc06                	sd	ra,56(sp)
    80002b3c:	f426                	sd	s1,40(sp)
    80002b3e:	f04a                	sd	s2,32(sp)
    80002b40:	ec4e                	sd	s3,24(sp)
    80002b42:	e852                	sd	s4,16(sp)
    80002b44:	e456                	sd	s5,8(sp)
    80002b46:	e05a                	sd	s6,0(sp)
    80002b48:	0080                	addi	s0,sp,64
    80002b4a:	87aa                	mv	a5,a0
    80002b4c:	01853983          	ld	s3,24(a0)
    80002b50:	4555                	li	a0,21
    80002b52:	0007ba03          	ld	s4,0(a5) # 3fff000 <_fw_start-0x7c001000>
    80002b56:	0087b903          	ld	s2,8(a5)
    80002b5a:	0107ba83          	ld	s5,16(a5)
    80002b5e:	b22ff0ef          	jal	ra,80001e80 <sbi_pmu_ctr_incr_fw>
    80002b62:	03fff7b7          	lui	a5,0x3fff
    80002b66:	1782                	slli	a5,a5,0x20
    80002b68:	19b2                	slli	s3,s3,0x2c
    80002b6a:	00f9f9b3          	and	s3,s3,a5
    80002b6e:	680999f3          	csrrw	s3,0x680,s3
    80002b72:	012a67b3          	or	a5,s4,s2
    80002b76:	cf85                	beqz	a5,80002bae <sbi_tlb_local_hfence_vvma_asid+0x78>
    80002b78:	57fd                	li	a5,-1
    80002b7a:	02f90d63          	beq	s2,a5,80002bb4 <sbi_tlb_local_hfence_vvma_asid+0x7e>
    80002b7e:	4481                	li	s1,0
    80002b80:	6b05                	lui	s6,0x1
    80002b82:	00090a63          	beqz	s2,80002b96 <sbi_tlb_local_hfence_vvma_asid+0x60>
    80002b86:	009a0533          	add	a0,s4,s1
    80002b8a:	85d6                	mv	a1,s5
    80002b8c:	94da                	add	s1,s1,s6
    80002b8e:	4a3060ef          	jal	ra,80009830 <__sbi_hfence_vvma_asid_va>
    80002b92:	ff24eae3          	bltu	s1,s2,80002b86 <sbi_tlb_local_hfence_vvma_asid+0x50>
    80002b96:	68099073          	csrw	0x680,s3
    80002b9a:	70e2                	ld	ra,56(sp)
    80002b9c:	7442                	ld	s0,48(sp)
    80002b9e:	74a2                	ld	s1,40(sp)
    80002ba0:	7902                	ld	s2,32(sp)
    80002ba2:	69e2                	ld	s3,24(sp)
    80002ba4:	6a42                	ld	s4,16(sp)
    80002ba6:	6aa2                	ld	s5,8(sp)
    80002ba8:	6b02                	ld	s6,0(sp)
    80002baa:	6121                	addi	sp,sp,64
    80002bac:	8082                	ret
    80002bae:	49b060ef          	jal	ra,80009848 <__sbi_hfence_vvma_all>
    80002bb2:	b7d5                	j	80002b96 <sbi_tlb_local_hfence_vvma_asid+0x60>
    80002bb4:	8556                	mv	a0,s5
    80002bb6:	483060ef          	jal	ra,80009838 <__sbi_hfence_vvma_asid>
    80002bba:	bff1                	j	80002b96 <sbi_tlb_local_hfence_vvma_asid+0x60>

0000000080002bbc <sbi_tlb_local_hfence_gvma_vmid>:
    80002bbc:	7139                	addi	sp,sp,-64
    80002bbe:	f822                	sd	s0,48(sp)
    80002bc0:	fc06                	sd	ra,56(sp)
    80002bc2:	f426                	sd	s1,40(sp)
    80002bc4:	f04a                	sd	s2,32(sp)
    80002bc6:	ec4e                	sd	s3,24(sp)
    80002bc8:	e852                	sd	s4,16(sp)
    80002bca:	e456                	sd	s5,8(sp)
    80002bcc:	0080                	addi	s0,sp,64
    80002bce:	00053983          	ld	s3,0(a0)
    80002bd2:	00853903          	ld	s2,8(a0)
    80002bd6:	87aa                	mv	a5,a0
    80002bd8:	4545                	li	a0,17
    80002bda:	0187ba03          	ld	s4,24(a5) # 3fff018 <_fw_start-0x7c000fe8>
    80002bde:	aa2ff0ef          	jal	ra,80001e80 <sbi_pmu_ctr_incr_fw>
    80002be2:	0129e7b3          	or	a5,s3,s2
    80002be6:	cb95                	beqz	a5,80002c1a <sbi_tlb_local_hfence_gvma_vmid+0x5e>
    80002be8:	57fd                	li	a5,-1
    80002bea:	02f90b63          	beq	s2,a5,80002c20 <sbi_tlb_local_hfence_gvma_vmid+0x64>
    80002bee:	4481                	li	s1,0
    80002bf0:	6a85                	lui	s5,0x1
    80002bf2:	00090b63          	beqz	s2,80002c08 <sbi_tlb_local_hfence_gvma_vmid+0x4c>
    80002bf6:	00998533          	add	a0,s3,s1
    80002bfa:	85d2                	mv	a1,s4
    80002bfc:	94d6                	add	s1,s1,s5
    80002bfe:	8109                	srli	a0,a0,0x2
    80002c00:	411060ef          	jal	ra,80009810 <__sbi_hfence_gvma_vmid_gpa>
    80002c04:	ff24e9e3          	bltu	s1,s2,80002bf6 <sbi_tlb_local_hfence_gvma_vmid+0x3a>
    80002c08:	70e2                	ld	ra,56(sp)
    80002c0a:	7442                	ld	s0,48(sp)
    80002c0c:	74a2                	ld	s1,40(sp)
    80002c0e:	7902                	ld	s2,32(sp)
    80002c10:	69e2                	ld	s3,24(sp)
    80002c12:	6a42                	ld	s4,16(sp)
    80002c14:	6aa2                	ld	s5,8(sp)
    80002c16:	6121                	addi	sp,sp,64
    80002c18:	8082                	ret
    80002c1a:	40f060ef          	jal	ra,80009828 <__sbi_hfence_gvma_all>
    80002c1e:	b7ed                	j	80002c08 <sbi_tlb_local_hfence_gvma_vmid+0x4c>
    80002c20:	8552                	mv	a0,s4
    80002c22:	3f7060ef          	jal	ra,80009818 <__sbi_hfence_gvma_vmid>
    80002c26:	b7cd                	j	80002c08 <sbi_tlb_local_hfence_gvma_vmid+0x4c>

0000000080002c28 <tlb_entry_process>:
    80002c28:	7139                	addi	sp,sp,-64
    80002c2a:	fc06                	sd	ra,56(sp)
    80002c2c:	f822                	sd	s0,48(sp)
    80002c2e:	f04a                	sd	s2,32(sp)
    80002c30:	ec4e                	sd	s3,24(sp)
    80002c32:	f426                	sd	s1,40(sp)
    80002c34:	e852                	sd	s4,16(sp)
    80002c36:	e456                	sd	s5,8(sp)
    80002c38:	e05a                	sd	s6,0(sp)
    80002c3a:	0080                	addi	s0,sp,64
    80002c3c:	711c                	ld	a5,32(a0)
    80002c3e:	02850993          	addi	s3,a0,40
    80002c42:	9782                	jalr	a5
    80002c44:	08000593          	li	a1,128
    80002c48:	854e                	mv	a0,s3
    80002c4a:	669010ef          	jal	ra,80004ab2 <find_first_bit>
    80002c4e:	0005091b          	sext.w	s2,a0
    80002c52:	07f00793          	li	a5,127
    80002c56:	0527e863          	bltu	a5,s2,80002ca6 <tlb_entry_process+0x7e>
    80002c5a:	00017a97          	auipc	s5,0x17
    80002c5e:	6beaba83          	ld	s5,1726(s5) # 8001a318 <_GLOBAL_OFFSET_TABLE_+0x88>
    80002c62:	0003bb17          	auipc	s6,0x3b
    80002c66:	a0eb0b13          	addi	s6,s6,-1522 # 8003d670 <tlb_sync_off>
    80002c6a:	07f00a13          	li	s4,127
    80002c6e:	02091713          	slli	a4,s2,0x20
    80002c72:	01d75793          	srli	a5,a4,0x1d
    80002c76:	97d6                	add	a5,a5,s5
    80002c78:	6384                	ld	s1,0(a5)
    80002c7a:	c889                	beqz	s1,80002c8c <tlb_entry_process+0x64>
    80002c7c:	000b3783          	ld	a5,0(s6)
    80002c80:	94be                	add	s1,s1,a5
    80002c82:	4585                	li	a1,1
    80002c84:	8526                	mv	a0,s1
    80002c86:	40b010ef          	jal	ra,80004890 <atomic_raw_xchg_ulong>
    80002c8a:	fd65                	bnez	a0,80002c82 <tlb_entry_process+0x5a>
    80002c8c:	0019061b          	addiw	a2,s2,1
    80002c90:	1602                	slli	a2,a2,0x20
    80002c92:	9201                	srli	a2,a2,0x20
    80002c94:	08000593          	li	a1,128
    80002c98:	854e                	mv	a0,s3
    80002c9a:	7e5010ef          	jal	ra,80004c7e <find_next_bit>
    80002c9e:	0005091b          	sext.w	s2,a0
    80002ca2:	fd2a76e3          	bgeu	s4,s2,80002c6e <tlb_entry_process+0x46>
    80002ca6:	70e2                	ld	ra,56(sp)
    80002ca8:	7442                	ld	s0,48(sp)
    80002caa:	74a2                	ld	s1,40(sp)
    80002cac:	7902                	ld	s2,32(sp)
    80002cae:	69e2                	ld	s3,24(sp)
    80002cb0:	6a42                	ld	s4,16(sp)
    80002cb2:	6aa2                	ld	s5,8(sp)
    80002cb4:	6b02                	ld	s6,0(sp)
    80002cb6:	6121                	addi	sp,sp,64
    80002cb8:	8082                	ret

0000000080002cba <tlb_process>:
    80002cba:	711d                	addi	sp,sp,-96
    80002cbc:	e8a2                	sd	s0,80(sp)
    80002cbe:	e4a6                	sd	s1,72(sp)
    80002cc0:	e0ca                	sd	s2,64(sp)
    80002cc2:	1080                	addi	s0,sp,96
    80002cc4:	ec86                	sd	ra,88(sp)
    80002cc6:	0003b797          	auipc	a5,0x3b
    80002cca:	9b27b783          	ld	a5,-1614(a5) # 8003d678 <tlb_fifo_off>
    80002cce:	00f50933          	add	s2,a0,a5
    80002cd2:	fa840493          	addi	s1,s0,-88
    80002cd6:	a019                	j	80002cdc <tlb_process+0x22>
    80002cd8:	f51ff0ef          	jal	ra,80002c28 <tlb_entry_process>
    80002cdc:	85a6                	mv	a1,s1
    80002cde:	854a                	mv	a0,s2
    80002ce0:	4a4040ef          	jal	ra,80007184 <sbi_fifo_dequeue>
    80002ce4:	87aa                	mv	a5,a0
    80002ce6:	8526                	mv	a0,s1
    80002ce8:	dbe5                	beqz	a5,80002cd8 <tlb_process+0x1e>
    80002cea:	60e6                	ld	ra,88(sp)
    80002cec:	6446                	ld	s0,80(sp)
    80002cee:	64a6                	ld	s1,72(sp)
    80002cf0:	6906                	ld	s2,64(sp)
    80002cf2:	6125                	addi	sp,sp,96
    80002cf4:	8082                	ret

0000000080002cf6 <tlb_update>:
    80002cf6:	7135                	addi	sp,sp,-160
    80002cf8:	e922                	sd	s0,144(sp)
    80002cfa:	fcce                	sd	s3,120(sp)
    80002cfc:	f8d2                	sd	s4,112(sp)
    80002cfe:	f0da                	sd	s6,96(sp)
    80002d00:	ecde                	sd	s7,88(sp)
    80002d02:	ed06                	sd	ra,152(sp)
    80002d04:	e526                	sd	s1,136(sp)
    80002d06:	e14a                	sd	s2,128(sp)
    80002d08:	f4d6                	sd	s5,104(sp)
    80002d0a:	e8e2                	sd	s8,80(sp)
    80002d0c:	e4e6                	sd	s9,72(sp)
    80002d0e:	1100                	addi	s0,sp,160
    80002d10:	8baa                	mv	s7,a0
    80002d12:	8a2e                	mv	s4,a1
    80002d14:	8b32                	mv	s6,a2
    80002d16:	89b6                	mv	s3,a3
    80002d18:	f1402af3          	csrr	s5,mhartid
    80002d1c:	0003bc17          	auipc	s8,0x3b
    80002d20:	954c0c13          	addi	s8,s8,-1708 # 8003d670 <tlb_sync_off>
    80002d24:	6698                	ld	a4,8(a3)
    80002d26:	010c3783          	ld	a5,16(s8)
    80002d2a:	2a81                	sext.w	s5,s5
    80002d2c:	00e7f663          	bgeu	a5,a4,80002d38 <tlb_update+0x42>
    80002d30:	57fd                	li	a5,-1
    80002d32:	0006b023          	sd	zero,0(a3) # 1000 <_fw_start-0x7ffff000>
    80002d36:	e69c                	sd	a5,8(a3)
    80002d38:	096a8763          	beq	s5,s6,80002dc6 <tlb_update+0xd0>
    80002d3c:	008c3783          	ld	a5,8(s8)
    80002d40:	00000617          	auipc	a2,0x0
    80002d44:	10a60613          	addi	a2,a2,266 # 80002e4a <tlb_update_cb>
    80002d48:	85ce                	mv	a1,s3
    80002d4a:	9a3e                	add	s4,s4,a5
    80002d4c:	8552                	mv	a0,s4
    80002d4e:	31a040ef          	jal	ra,80007068 <sbi_fifo_inplace_update>
    80002d52:	872a                	mv	a4,a0
    80002d54:	4789                	li	a5,2
    80002d56:	4505                	li	a0,1
    80002d58:	04f71a63          	bne	a4,a5,80002dac <tlb_update+0xb6>
    80002d5c:	f6840913          	addi	s2,s0,-152
    80002d60:	00014c97          	auipc	s9,0x14
    80002d64:	8d0c8c93          	addi	s9,s9,-1840 # 80016630 <__func__.0+0x18>
    80002d68:	a815                	j	80002d9c <tlb_update+0xa6>
    80002d6a:	008c3483          	ld	s1,8(s8)
    80002d6e:	94de                	add	s1,s1,s7
    80002d70:	8526                	mv	a0,s1
    80002d72:	412040ef          	jal	ra,80007184 <sbi_fifo_dequeue>
    80002d76:	87aa                	mv	a5,a0
    80002d78:	854a                	mv	a0,s2
    80002d7a:	ef81                	bnez	a5,80002d92 <tlb_update+0x9c>
    80002d7c:	eadff0ef          	jal	ra,80002c28 <tlb_entry_process>
    80002d80:	85ca                	mv	a1,s2
    80002d82:	8526                	mv	a0,s1
    80002d84:	400040ef          	jal	ra,80007184 <sbi_fifo_dequeue>
    80002d88:	87aa                	mv	a5,a0
    80002d8a:	854a                	mv	a0,s2
    80002d8c:	e399                	bnez	a5,80002d92 <tlb_update+0x9c>
    80002d8e:	e9bff0ef          	jal	ra,80002c28 <tlb_entry_process>
    80002d92:	865a                	mv	a2,s6
    80002d94:	85d6                	mv	a1,s5
    80002d96:	8566                	mv	a0,s9
    80002d98:	177020ef          	jal	ra,8000570e <sbi_dprintf>
    80002d9c:	85ce                	mv	a1,s3
    80002d9e:	8552                	mv	a0,s4
    80002da0:	360040ef          	jal	ra,80007100 <sbi_fifo_enqueue>
    80002da4:	85ca                	mv	a1,s2
    80002da6:	fc0542e3          	bltz	a0,80002d6a <tlb_update+0x74>
    80002daa:	4501                	li	a0,0
    80002dac:	60ea                	ld	ra,152(sp)
    80002dae:	644a                	ld	s0,144(sp)
    80002db0:	64aa                	ld	s1,136(sp)
    80002db2:	690a                	ld	s2,128(sp)
    80002db4:	79e6                	ld	s3,120(sp)
    80002db6:	7a46                	ld	s4,112(sp)
    80002db8:	7aa6                	ld	s5,104(sp)
    80002dba:	7b06                	ld	s6,96(sp)
    80002dbc:	6be6                	ld	s7,88(sp)
    80002dbe:	6c46                	ld	s8,80(sp)
    80002dc0:	6ca6                	ld	s9,72(sp)
    80002dc2:	610d                	addi	sp,sp,160
    80002dc4:	8082                	ret
    80002dc6:	0209b783          	ld	a5,32(s3)
    80002dca:	854e                	mv	a0,s3
    80002dcc:	9782                	jalr	a5
    80002dce:	557d                	li	a0,-1
    80002dd0:	bff1                	j	80002dac <tlb_update+0xb6>

0000000080002dd2 <tlb_sync>:
    80002dd2:	7119                	addi	sp,sp,-128
    80002dd4:	f8a2                	sd	s0,112(sp)
    80002dd6:	f0ca                	sd	s2,96(sp)
    80002dd8:	e8d2                	sd	s4,80(sp)
    80002dda:	e4d6                	sd	s5,72(sp)
    80002ddc:	fc86                	sd	ra,120(sp)
    80002dde:	f4a6                	sd	s1,104(sp)
    80002de0:	ecce                	sd	s3,88(sp)
    80002de2:	0100                	addi	s0,sp,128
    80002de4:	0003ba97          	auipc	s5,0x3b
    80002de8:	88ca8a93          	addi	s5,s5,-1908 # 8003d670 <tlb_sync_off>
    80002dec:	000ab983          	ld	s3,0(s5)
    80002df0:	8a2a                	mv	s4,a0
    80002df2:	f8840913          	addi	s2,s0,-120
    80002df6:	99aa                	add	s3,s3,a0
    80002df8:	4581                	li	a1,0
    80002dfa:	854e                	mv	a0,s3
    80002dfc:	295010ef          	jal	ra,80004890 <atomic_raw_xchg_ulong>
    80002e00:	85ca                	mv	a1,s2
    80002e02:	e91d                	bnez	a0,80002e38 <tlb_sync+0x66>
    80002e04:	008ab483          	ld	s1,8(s5)
    80002e08:	94d2                	add	s1,s1,s4
    80002e0a:	8526                	mv	a0,s1
    80002e0c:	378040ef          	jal	ra,80007184 <sbi_fifo_dequeue>
    80002e10:	87aa                	mv	a5,a0
    80002e12:	854a                	mv	a0,s2
    80002e14:	f3f5                	bnez	a5,80002df8 <tlb_sync+0x26>
    80002e16:	e13ff0ef          	jal	ra,80002c28 <tlb_entry_process>
    80002e1a:	85ca                	mv	a1,s2
    80002e1c:	8526                	mv	a0,s1
    80002e1e:	366040ef          	jal	ra,80007184 <sbi_fifo_dequeue>
    80002e22:	87aa                	mv	a5,a0
    80002e24:	854a                	mv	a0,s2
    80002e26:	fbe9                	bnez	a5,80002df8 <tlb_sync+0x26>
    80002e28:	e01ff0ef          	jal	ra,80002c28 <tlb_entry_process>
    80002e2c:	4581                	li	a1,0
    80002e2e:	854e                	mv	a0,s3
    80002e30:	261010ef          	jal	ra,80004890 <atomic_raw_xchg_ulong>
    80002e34:	85ca                	mv	a1,s2
    80002e36:	d579                	beqz	a0,80002e04 <tlb_sync+0x32>
    80002e38:	70e6                	ld	ra,120(sp)
    80002e3a:	7446                	ld	s0,112(sp)
    80002e3c:	74a6                	ld	s1,104(sp)
    80002e3e:	7906                	ld	s2,96(sp)
    80002e40:	69e6                	ld	s3,88(sp)
    80002e42:	6a46                	ld	s4,80(sp)
    80002e44:	6aa6                	ld	s5,72(sp)
    80002e46:	6109                	addi	sp,sp,128
    80002e48:	8082                	ret

0000000080002e4a <tlb_update_cb>:
    80002e4a:	cd25                	beqz	a0,80002ec2 <tlb_update_cb+0x78>
    80002e4c:	c9bd                	beqz	a1,80002ec2 <tlb_update_cb+0x78>
    80002e4e:	1141                	addi	sp,sp,-16
    80002e50:	e022                	sd	s0,0(sp)
    80002e52:	e406                	sd	ra,8(sp)
    80002e54:	0800                	addi	s0,sp,16
    80002e56:	711c                	ld	a5,32(a0)
    80002e58:	00000717          	auipc	a4,0x0
    80002e5c:	b7870713          	addi	a4,a4,-1160 # 800029d0 <sbi_tlb_local_sfence_vma_asid>
    80002e60:	862a                	mv	a2,a0
    80002e62:	02e78063          	beq	a5,a4,80002e82 <tlb_update_cb+0x38>
    80002e66:	00000717          	auipc	a4,0x0
    80002e6a:	b1670713          	addi	a4,a4,-1258 # 8000297c <sbi_tlb_local_sfence_vma>
    80002e6e:	4509                	li	a0,2
    80002e70:	00e79563          	bne	a5,a4,80002e7a <tlb_update_cb+0x30>
    80002e74:	7198                	ld	a4,32(a1)
    80002e76:	00f70e63          	beq	a4,a5,80002e92 <tlb_update_cb+0x48>
    80002e7a:	60a2                	ld	ra,8(sp)
    80002e7c:	6402                	ld	s0,0(sp)
    80002e7e:	0141                	addi	sp,sp,16
    80002e80:	8082                	ret
    80002e82:	7198                	ld	a4,32(a1)
    80002e84:	4509                	li	a0,2
    80002e86:	fef71ae3          	bne	a4,a5,80002e7a <tlb_update_cb+0x30>
    80002e8a:	6a18                	ld	a4,16(a2)
    80002e8c:	699c                	ld	a5,16(a1)
    80002e8e:	fef716e3          	bne	a4,a5,80002e7a <tlb_update_cb+0x30>
    80002e92:	6214                	ld	a3,0(a2)
    80002e94:	6618                	ld	a4,8(a2)
    80002e96:	0005b803          	ld	a6,0(a1)
    80002e9a:	659c                	ld	a5,8(a1)
    80002e9c:	9736                	add	a4,a4,a3
    80002e9e:	97c2                	add	a5,a5,a6
    80002ea0:	02d86363          	bltu	a6,a3,80002ec6 <tlb_update_cb+0x7c>
    80002ea4:	02e7e463          	bltu	a5,a4,80002ecc <tlb_update_cb+0x82>
    80002ea8:	fd0699e3          	bne	a3,a6,80002e7a <tlb_update_cb+0x30>
    80002eac:	02858593          	addi	a1,a1,40
    80002eb0:	852e                	mv	a0,a1
    80002eb2:	08000693          	li	a3,128
    80002eb6:	02860613          	addi	a2,a2,40
    80002eba:	385010ef          	jal	ra,80004a3e <__bitmap_or>
    80002ebe:	4501                	li	a0,0
    80002ec0:	bf6d                	j	80002e7a <tlb_update_cb+0x30>
    80002ec2:	4509                	li	a0,2
    80002ec4:	8082                	ret
    80002ec6:	fae7eae3          	bltu	a5,a4,80002e7a <tlb_update_cb+0x30>
    80002eca:	b7cd                	j	80002eac <tlb_update_cb+0x62>
    80002ecc:	e194                	sd	a3,0(a1)
    80002ece:	6618                	ld	a4,8(a2)
    80002ed0:	02858793          	addi	a5,a1,40
    80002ed4:	853e                	mv	a0,a5
    80002ed6:	e598                	sd	a4,8(a1)
    80002ed8:	08000693          	li	a3,128
    80002edc:	02860613          	addi	a2,a2,40
    80002ee0:	85be                	mv	a1,a5
    80002ee2:	35d010ef          	jal	ra,80004a3e <__bitmap_or>
    80002ee6:	4505                	li	a0,1
    80002ee8:	bf49                	j	80002e7a <tlb_update_cb+0x30>

0000000080002eea <sbi_tlb_request>:
    80002eea:	721c                	ld	a5,32(a2)
    80002eec:	c3e9                	beqz	a5,80002fae <sbi_tlb_request+0xc4>
    80002eee:	7179                	addi	sp,sp,-48
    80002ef0:	f022                	sd	s0,32(sp)
    80002ef2:	ec26                	sd	s1,24(sp)
    80002ef4:	e84a                	sd	s2,16(sp)
    80002ef6:	e44e                	sd	s3,8(sp)
    80002ef8:	f406                	sd	ra,40(sp)
    80002efa:	1800                	addi	s0,sp,48
    80002efc:	00000717          	auipc	a4,0x0
    80002f00:	b4670713          	addi	a4,a4,-1210 # 80002a42 <sbi_tlb_local_fence_i>
    80002f04:	84b2                	mv	s1,a2
    80002f06:	892a                	mv	s2,a0
    80002f08:	89ae                	mv	s3,a1
    80002f0a:	06e78a63          	beq	a5,a4,80002f7e <sbi_tlb_request+0x94>
    80002f0e:	00000717          	auipc	a4,0x0
    80002f12:	a6e70713          	addi	a4,a4,-1426 # 8000297c <sbi_tlb_local_sfence_vma>
    80002f16:	06e78863          	beq	a5,a4,80002f86 <sbi_tlb_request+0x9c>
    80002f1a:	00000717          	auipc	a4,0x0
    80002f1e:	ab670713          	addi	a4,a4,-1354 # 800029d0 <sbi_tlb_local_sfence_vma_asid>
    80002f22:	06e78663          	beq	a5,a4,80002f8e <sbi_tlb_request+0xa4>
    80002f26:	00000717          	auipc	a4,0x0
    80002f2a:	baa70713          	addi	a4,a4,-1110 # 80002ad0 <sbi_tlb_local_hfence_gvma>
    80002f2e:	04e78463          	beq	a5,a4,80002f76 <sbi_tlb_request+0x8c>
    80002f32:	00000717          	auipc	a4,0x0
    80002f36:	c8a70713          	addi	a4,a4,-886 # 80002bbc <sbi_tlb_local_hfence_gvma_vmid>
    80002f3a:	04e78e63          	beq	a5,a4,80002f96 <sbi_tlb_request+0xac>
    80002f3e:	00000717          	auipc	a4,0x0
    80002f42:	b1e70713          	addi	a4,a4,-1250 # 80002a5c <sbi_tlb_local_hfence_vvma>
    80002f46:	04e78c63          	beq	a5,a4,80002f9e <sbi_tlb_request+0xb4>
    80002f4a:	00000717          	auipc	a4,0x0
    80002f4e:	bec70713          	addi	a4,a4,-1044 # 80002b36 <sbi_tlb_local_hfence_vvma_asid>
    80002f52:	04e78a63          	beq	a5,a4,80002fa6 <sbi_tlb_request+0xbc>
    80002f56:	86a6                	mv	a3,s1
    80002f58:	85ce                	mv	a1,s3
    80002f5a:	854a                	mv	a0,s2
    80002f5c:	00016617          	auipc	a2,0x16
    80002f60:	0ec62603          	lw	a2,236(a2) # 80019048 <tlb_event>
    80002f64:	ecffd0ef          	jal	ra,80000e32 <sbi_ipi_send_many>
    80002f68:	70a2                	ld	ra,40(sp)
    80002f6a:	7402                	ld	s0,32(sp)
    80002f6c:	64e2                	ld	s1,24(sp)
    80002f6e:	6942                	ld	s2,16(sp)
    80002f70:	69a2                	ld	s3,8(sp)
    80002f72:	6145                	addi	sp,sp,48
    80002f74:	8082                	ret
    80002f76:	4539                	li	a0,14
    80002f78:	f09fe0ef          	jal	ra,80001e80 <sbi_pmu_ctr_incr_fw>
    80002f7c:	bfe9                	j	80002f56 <sbi_tlb_request+0x6c>
    80002f7e:	4521                	li	a0,8
    80002f80:	f01fe0ef          	jal	ra,80001e80 <sbi_pmu_ctr_incr_fw>
    80002f84:	bfc9                	j	80002f56 <sbi_tlb_request+0x6c>
    80002f86:	4529                	li	a0,10
    80002f88:	ef9fe0ef          	jal	ra,80001e80 <sbi_pmu_ctr_incr_fw>
    80002f8c:	b7e9                	j	80002f56 <sbi_tlb_request+0x6c>
    80002f8e:	4531                	li	a0,12
    80002f90:	ef1fe0ef          	jal	ra,80001e80 <sbi_pmu_ctr_incr_fw>
    80002f94:	b7c9                	j	80002f56 <sbi_tlb_request+0x6c>
    80002f96:	4541                	li	a0,16
    80002f98:	ee9fe0ef          	jal	ra,80001e80 <sbi_pmu_ctr_incr_fw>
    80002f9c:	bf6d                	j	80002f56 <sbi_tlb_request+0x6c>
    80002f9e:	4549                	li	a0,18
    80002fa0:	ee1fe0ef          	jal	ra,80001e80 <sbi_pmu_ctr_incr_fw>
    80002fa4:	bf4d                	j	80002f56 <sbi_tlb_request+0x6c>
    80002fa6:	4551                	li	a0,20
    80002fa8:	ed9fe0ef          	jal	ra,80001e80 <sbi_pmu_ctr_incr_fw>
    80002fac:	b76d                	j	80002f56 <sbi_tlb_request+0x6c>
    80002fae:	5575                	li	a0,-3
    80002fb0:	8082                	ret

0000000080002fb2 <sbi_tlb_init>:
    80002fb2:	7179                	addi	sp,sp,-48
    80002fb4:	f022                	sd	s0,32(sp)
    80002fb6:	ec26                	sd	s1,24(sp)
    80002fb8:	f406                	sd	ra,40(sp)
    80002fba:	e84a                	sd	s2,16(sp)
    80002fbc:	e44e                	sd	s3,8(sp)
    80002fbe:	e052                	sd	s4,0(sp)
    80002fc0:	1800                	addi	s0,sp,48
    80002fc2:	03053a03          	ld	s4,48(a0)
    80002fc6:	84aa                	mv	s1,a0
    80002fc8:	e9a1                	bnez	a1,80003018 <sbi_tlb_init+0x66>
    80002fca:	0003a717          	auipc	a4,0x3a
    80002fce:	6a670713          	addi	a4,a4,1702 # 8003d670 <tlb_sync_off>
    80002fd2:	631c                	ld	a5,0(a4)
    80002fd4:	0c078e63          	beqz	a5,800030b0 <sbi_tlb_init+0xfe>
    80002fd8:	6708                	ld	a0,8(a4)
    80002fda:	c979                	beqz	a0,800030b0 <sbi_tlb_init+0xfe>
    80002fdc:	6f0c                	ld	a1,24(a4)
    80002fde:	c9e9                	beqz	a1,800030b0 <sbi_tlb_init+0xfe>
    80002fe0:	00016697          	auipc	a3,0x16
    80002fe4:	0686a683          	lw	a3,104(a3) # 80019048 <tlb_event>
    80002fe8:	03f00713          	li	a4,63
    80002fec:	0ad76b63          	bltu	a4,a3,800030a2 <sbi_tlb_init+0xf0>
    80002ff0:	97a6                	add	a5,a5,s1
    80002ff2:	0007b023          	sd	zero,0(a5)
    80002ff6:	03800693          	li	a3,56
    80002ffa:	4621                	li	a2,8
    80002ffc:	95a6                	add	a1,a1,s1
    80002ffe:	9526                	add	a0,a0,s1
    80003000:	73d030ef          	jal	ra,80006f3c <sbi_fifo_init>
    80003004:	4901                	li	s2,0
    80003006:	70a2                	ld	ra,40(sp)
    80003008:	7402                	ld	s0,32(sp)
    8000300a:	64e2                	ld	s1,24(sp)
    8000300c:	69a2                	ld	s3,8(sp)
    8000300e:	6a02                	ld	s4,0(sp)
    80003010:	854a                	mv	a0,s2
    80003012:	6942                	ld	s2,16(sp)
    80003014:	6145                	addi	sp,sp,48
    80003016:	8082                	ret
    80003018:	4521                	li	a0,8
    8000301a:	99aff0ef          	jal	ra,800021b4 <sbi_scratch_alloc_offset>
    8000301e:	0003a997          	auipc	s3,0x3a
    80003022:	65298993          	addi	s3,s3,1618 # 8003d670 <tlb_sync_off>
    80003026:	00a9b023          	sd	a0,0(s3)
    8000302a:	c159                	beqz	a0,800030b0 <sbi_tlb_init+0xfe>
    8000302c:	4561                	li	a0,24
    8000302e:	986ff0ef          	jal	ra,800021b4 <sbi_scratch_alloc_offset>
    80003032:	00a9b423          	sd	a0,8(s3)
    80003036:	c92d                	beqz	a0,800030a8 <sbi_tlb_init+0xf6>
    80003038:	1c000513          	li	a0,448
    8000303c:	978ff0ef          	jal	ra,800021b4 <sbi_scratch_alloc_offset>
    80003040:	00a9bc23          	sd	a0,24(s3)
    80003044:	c92d                	beqz	a0,800030b6 <sbi_tlb_init+0x104>
    80003046:	00016517          	auipc	a0,0x16
    8000304a:	10a50513          	addi	a0,a0,266 # 80019150 <tlb_ops>
    8000304e:	ed9fd0ef          	jal	ra,80000f26 <sbi_ipi_event_create>
    80003052:	892a                	mv	s2,a0
    80003054:	02054863          	bltz	a0,80003084 <sbi_tlb_init+0xd2>
    80003058:	00016797          	auipc	a5,0x16
    8000305c:	fea7a823          	sw	a0,-16(a5) # 80019048 <tlb_event>
    80003060:	020a0f63          	beqz	s4,8000309e <sbi_tlb_init+0xec>
    80003064:	058a3783          	ld	a5,88(s4) # 1058 <_fw_start-0x7fffefa8>
    80003068:	6705                	lui	a4,0x1
    8000306a:	63dc                	ld	a5,128(a5)
    8000306c:	c399                	beqz	a5,80003072 <sbi_tlb_init+0xc0>
    8000306e:	9782                	jalr	a5
    80003070:	872a                	mv	a4,a0
    80003072:	0009b783          	ld	a5,0(s3)
    80003076:	0089b503          	ld	a0,8(s3)
    8000307a:	0189b583          	ld	a1,24(s3)
    8000307e:	00e9b823          	sd	a4,16(s3)
    80003082:	b7bd                	j	80002ff0 <sbi_tlb_init+0x3e>
    80003084:	0189b503          	ld	a0,24(s3)
    80003088:	9c8ff0ef          	jal	ra,80002250 <sbi_scratch_free_offset>
    8000308c:	0089b503          	ld	a0,8(s3)
    80003090:	9c0ff0ef          	jal	ra,80002250 <sbi_scratch_free_offset>
    80003094:	0009b503          	ld	a0,0(s3)
    80003098:	9b8ff0ef          	jal	ra,80002250 <sbi_scratch_free_offset>
    8000309c:	b7ad                	j	80003006 <sbi_tlb_init+0x54>
    8000309e:	6705                	lui	a4,0x1
    800030a0:	bfc9                	j	80003072 <sbi_tlb_init+0xc0>
    800030a2:	c1300913          	li	s2,-1005
    800030a6:	b785                	j	80003006 <sbi_tlb_init+0x54>
    800030a8:	0009b503          	ld	a0,0(s3)
    800030ac:	9a4ff0ef          	jal	ra,80002250 <sbi_scratch_free_offset>
    800030b0:	c1200913          	li	s2,-1006
    800030b4:	bf89                	j	80003006 <sbi_tlb_init+0x54>
    800030b6:	0089b503          	ld	a0,8(s3)
    800030ba:	c1200913          	li	s2,-1006
    800030be:	992ff0ef          	jal	ra,80002250 <sbi_scratch_free_offset>
    800030c2:	0009b503          	ld	a0,0(s3)
    800030c6:	98aff0ef          	jal	ra,80002250 <sbi_scratch_free_offset>
    800030ca:	bf35                	j	80003006 <sbi_tlb_init+0x54>

00000000800030cc <sbi_trap_redirect>:
    800030cc:	7179                	addi	sp,sp,-48
    800030ce:	f022                	sd	s0,32(sp)
    800030d0:	e052                	sd	s4,0(sp)
    800030d2:	f406                	sd	ra,40(sp)
    800030d4:	ec26                	sd	s1,24(sp)
    800030d6:	e84a                	sd	s2,16(sp)
    800030d8:	e44e                	sd	s3,8(sp)
    800030da:	1800                	addi	s0,sp,48
    800030dc:	10853783          	ld	a5,264(a0)
    800030e0:	00b7da13          	srli	s4,a5,0xb
    800030e4:	002a7713          	andi	a4,s4,2
    800030e8:	1c071063          	bnez	a4,800032a8 <sbi_trap_redirect+0x1dc>
    800030ec:	84aa                	mv	s1,a0
    800030ee:	939d                	srli	a5,a5,0x27
    800030f0:	04800513          	li	a0,72
    800030f4:	892e                	mv	s2,a1
    800030f6:	0017f993          	andi	s3,a5,1
    800030fa:	003a7a13          	andi	s4,s4,3
    800030fe:	383000ef          	jal	ra,80003c80 <misa_extension_imp>
    80003102:	ed35                	bnez	a0,8000317e <sbi_trap_redirect+0xb2>
    80003104:	1084b703          	ld	a4,264(s1)
    80003108:	57fd                	li	a5,-1
    8000310a:	179e                	slli	a5,a5,0x27
    8000310c:	17fd                	addi	a5,a5,-1
    8000310e:	8ff9                	and	a5,a5,a4
    80003110:	10f4b423          	sd	a5,264(s1)
    80003114:	04800513          	li	a0,72
    80003118:	369000ef          	jal	ra,80003c80 <misa_extension_imp>
    8000311c:	ed45                	bnez	a0,800031d4 <sbi_trap_redirect+0x108>
    8000311e:	01093783          	ld	a5,16(s2)
    80003122:	14379073          	csrw	stval,a5
    80003126:	00093783          	ld	a5,0(s2)
    8000312a:	14179073          	csrw	sepc,a5
    8000312e:	00893783          	ld	a5,8(s2)
    80003132:	14279073          	csrw	scause,a5
    80003136:	10502773          	csrr	a4,stvec
    8000313a:	1084b783          	ld	a5,264(s1)
    8000313e:	10e4b023          	sd	a4,256(s1)
    80003142:	7779                	lui	a4,0xffffe
    80003144:	6ff70713          	addi	a4,a4,1791 # ffffffffffffe6ff <_fw_reloc_end+0xffffffff7fdfd6f7>
    80003148:	4685                	li	a3,1
    8000314a:	8ff9                	and	a5,a5,a4
    8000314c:	6705                	lui	a4,0x1
    8000314e:	14da0963          	beq	s4,a3,800032a0 <sbi_trap_redirect+0x1d4>
    80003152:	80070713          	addi	a4,a4,-2048 # 800 <_fw_start-0x7ffff800>
    80003156:	8fd9                	or	a5,a5,a4
    80003158:	0027f713          	andi	a4,a5,2
    8000315c:	fdf7f793          	andi	a5,a5,-33
    80003160:	c319                	beqz	a4,80003166 <sbi_trap_redirect+0x9a>
    80003162:	0207e793          	ori	a5,a5,32
    80003166:	9bf5                	andi	a5,a5,-3
    80003168:	10f4b423          	sd	a5,264(s1)
    8000316c:	4501                	li	a0,0
    8000316e:	70a2                	ld	ra,40(sp)
    80003170:	7402                	ld	s0,32(sp)
    80003172:	64e2                	ld	s1,24(sp)
    80003174:	6942                	ld	s2,16(sp)
    80003176:	69a2                	ld	s3,8(sp)
    80003178:	6a02                	ld	s4,0(sp)
    8000317a:	6145                	addi	sp,sp,48
    8000317c:	8082                	ret
    8000317e:	00099f63          	bnez	s3,8000319c <sbi_trap_redirect+0xd0>
    80003182:	1084b703          	ld	a4,264(s1)
    80003186:	57fd                	li	a5,-1
    80003188:	179e                	slli	a5,a5,0x27
    8000318a:	17fd                	addi	a5,a5,-1
    8000318c:	8ff9                	and	a5,a5,a4
    8000318e:	10f4b423          	sd	a5,264(s1)
    80003192:	04800513          	li	a0,72
    80003196:	2eb000ef          	jal	ra,80003c80 <misa_extension_imp>
    8000319a:	b751                	j	8000311e <sbi_trap_redirect+0x52>
    8000319c:	00893703          	ld	a4,8(s2)
    800031a0:	03f00793          	li	a5,63
    800031a4:	02e7eb63          	bltu	a5,a4,800031da <sbi_trap_redirect+0x10e>
    800031a8:	602027f3          	csrr	a5,0x602
    800031ac:	00893703          	ld	a4,8(s2)
    800031b0:	00e7d7b3          	srl	a5,a5,a4
    800031b4:	8b85                	andi	a5,a5,1
    800031b6:	e7b5                	bnez	a5,80003222 <sbi_trap_redirect+0x156>
    800031b8:	1084b703          	ld	a4,264(s1)
    800031bc:	57fd                	li	a5,-1
    800031be:	179e                	slli	a5,a5,0x27
    800031c0:	17fd                	addi	a5,a5,-1
    800031c2:	8ff9                	and	a5,a5,a4
    800031c4:	10f4b423          	sd	a5,264(s1)
    800031c8:	04800513          	li	a0,72
    800031cc:	2b5000ef          	jal	ra,80003c80 <misa_extension_imp>
    800031d0:	d539                	beqz	a0,8000311e <sbi_trap_redirect+0x52>
    800031d2:	a00d                	j	800031f4 <sbi_trap_redirect+0x128>
    800031d4:	f40985e3          	beqz	s3,8000311e <sbi_trap_redirect+0x52>
    800031d8:	a831                	j	800031f4 <sbi_trap_redirect+0x128>
    800031da:	1084b703          	ld	a4,264(s1)
    800031de:	57fd                	li	a5,-1
    800031e0:	179e                	slli	a5,a5,0x27
    800031e2:	17fd                	addi	a5,a5,-1
    800031e4:	8ff9                	and	a5,a5,a4
    800031e6:	10f4b423          	sd	a5,264(s1)
    800031ea:	04800513          	li	a0,72
    800031ee:	293000ef          	jal	ra,80003c80 <misa_extension_imp>
    800031f2:	d515                	beqz	a0,8000311e <sbi_trap_redirect+0x52>
    800031f4:	600027f3          	csrr	a5,0x600
    800031f8:	fffa0713          	addi	a4,s4,-1
    800031fc:	00173713          	seqz	a4,a4
    80003200:	0722                	slli	a4,a4,0x8
    80003202:	e7f7f793          	andi	a5,a5,-385
    80003206:	8fd9                	or	a5,a5,a4
    80003208:	0807e793          	ori	a5,a5,128
    8000320c:	60079073          	csrw	0x600,a5
    80003210:	01893783          	ld	a5,24(s2)
    80003214:	64379073          	csrw	0x643,a5
    80003218:	02093783          	ld	a5,32(s2)
    8000321c:	64a79073          	csrw	0x64a,a5
    80003220:	bdfd                	j	8000311e <sbi_trap_redirect+0x52>
    80003222:	1084b783          	ld	a5,264(s1)
    80003226:	577d                	li	a4,-1
    80003228:	171e                	slli	a4,a4,0x27
    8000322a:	4985                	li	s3,1
    8000322c:	177d                	addi	a4,a4,-1
    8000322e:	8ff9                	and	a5,a5,a4
    80003230:	02799713          	slli	a4,s3,0x27
    80003234:	8fd9                	or	a5,a5,a4
    80003236:	10f4b423          	sd	a5,264(s1)
    8000323a:	04800513          	li	a0,72
    8000323e:	243000ef          	jal	ra,80003c80 <misa_extension_imp>
    80003242:	01093783          	ld	a5,16(s2)
    80003246:	24379073          	csrw	hbadaddr,a5
    8000324a:	00093783          	ld	a5,0(s2)
    8000324e:	24179073          	csrw	hepc,a5
    80003252:	00893783          	ld	a5,8(s2)
    80003256:	24279073          	csrw	hcause,a5
    8000325a:	205026f3          	csrr	a3,htvec
    8000325e:	1084b783          	ld	a5,264(s1)
    80003262:	7779                	lui	a4,0xffffe
    80003264:	7ff70713          	addi	a4,a4,2047 # ffffffffffffe7ff <_fw_reloc_end+0xffffffff7fdfd7f7>
    80003268:	8ff9                	and	a5,a5,a4
    8000326a:	6705                	lui	a4,0x1
    8000326c:	80070713          	addi	a4,a4,-2048 # 800 <_fw_start-0x7ffff800>
    80003270:	8fd9                	or	a5,a5,a4
    80003272:	10d4b023          	sd	a3,256(s1)
    80003276:	10f4b423          	sd	a5,264(s1)
    8000327a:	200027f3          	csrr	a5,hstatus
    8000327e:	eff7f793          	andi	a5,a5,-257
    80003282:	013a1463          	bne	s4,s3,8000328a <sbi_trap_redirect+0x1be>
    80003286:	1007e793          	ori	a5,a5,256
    8000328a:	0027f713          	andi	a4,a5,2
    8000328e:	fdf7f793          	andi	a5,a5,-33
    80003292:	c319                	beqz	a4,80003298 <sbi_trap_redirect+0x1cc>
    80003294:	0207e793          	ori	a5,a5,32
    80003298:	9bf5                	andi	a5,a5,-3
    8000329a:	20079073          	csrw	hstatus,a5
    8000329e:	b5f9                	j	8000316c <sbi_trap_redirect+0xa0>
    800032a0:	90070713          	addi	a4,a4,-1792
    800032a4:	8fd9                	or	a5,a5,a4
    800032a6:	bd4d                	j	80003158 <sbi_trap_redirect+0x8c>
    800032a8:	5579                	li	a0,-2
    800032aa:	b5d1                	j	8000316e <sbi_trap_redirect+0xa2>

00000000800032ac <sbi_trap_handler>:
    800032ac:	7119                	addi	sp,sp,-128
    800032ae:	f8a2                	sd	s0,112(sp)
    800032b0:	f4a6                	sd	s1,104(sp)
    800032b2:	fc86                	sd	ra,120(sp)
